
unit.o:	file format ELF64-x86-64

Disassembly of section .group:
.group:
       0:	01 00 	addl	%eax, (%rax)
       2:	00 00 	addb	%al, (%rax)
       4:	0b 00 	orl	(%rax), %eax
       6:	00 00 	addb	%al, (%rax)
Disassembly of section .group:
.group:
       0:	01 00 	addl	%eax, (%rax)
       2:	00 00 	addb	%al, (%rax)
       4:	0c 00 	orb	$0, %al
       6:	00 00 	addb	%al, (%rax)
Disassembly of section .group:
.group:
       0:	01 00 	addl	%eax, (%rax)
       2:	00 00 	addb	%al, (%rax)
       4:	0d  <unknown>
       5:	00 00 	addb	%al, (%rax)
       7:	00  <unknown>
Disassembly of section .group:
.group:
       0:	01 00 	addl	%eax, (%rax)
       2:	00 00 	addb	%al, (%rax)
       4:	0e  <unknown>
       5:	00 00 	addb	%al, (%rax)
       7:	00 0f 	addb	%cl, (%rdi)
       9:	00 00 	addb	%al, (%rax)
       b:	00  <unknown>
Disassembly of section .text:
_Z5StartiRdS_S_:
       0:	55 	pushq	%rbp
       1:	48 89 e5 	movq	%rsp, %rbp
       4:	48 83 ec 20 	subq	$32, %rsp
       8:	89 7d fc 	movl	%edi, -4(%rbp)
       b:	48 89 75 f0 	movq	%rsi, -16(%rbp)
       f:	48 89 55 e8 	movq	%rdx, -24(%rbp)
      13:	48 89 4d e0 	movq	%rcx, -32(%rbp)
      17:	8b 45 fc 	movl	-4(%rbp), %eax
      1a:	89 05 00 00 00 00 	movl	%eax, (%rip)
      20:	c7 05 00 00 00 00 00 00 00 00 	movl	$0, (%rip)
      2a:	83 7d fc 0d 	cmpl	$13, -4(%rbp)
      2e:	0f 87 7c 05 00 00 	ja	1404 <_Z5StartiRdS_S_+0x5b0>
      34:	8b 45 fc 	movl	-4(%rbp), %eax
      37:	48 8d 14 85 00 00 00 00 	leaq	(,%rax,4), %rdx
      3f:	48 8d 05 00 00 00 00 	leaq	(%rip), %rax
      46:	8b 04 02 	movl	(%rdx,%rax), %eax
      49:	48 63 d0 	movslq	%eax, %rdx
      4c:	48 8d 05 00 00 00 00 	leaq	(%rip), %rax
      53:	48 01 d0 	addq	%rdx, %rax
      56:	ff e0 	jmpq	*%rax
      58:	f2 0f 10 05 00 00 00 00 	movsd	(%rip), %xmm0
      60:	f2 0f 11 05 00 00 00 00 	movsd	%xmm0, (%rip)
      68:	66 0f ef c0 	pxor	%xmm0, %xmm0
      6c:	f2 0f 11 05 00 00 00 00 	movsd	%xmm0, (%rip)
      74:	48 8b 45 f0 	movq	-16(%rbp), %rax
      78:	f2 0f 10 05 00 00 00 00 	movsd	(%rip), %xmm0
      80:	f2 0f 11 00 	movsd	%xmm0, (%rax)
      84:	f2 0f 10 0d 00 00 00 00 	movsd	(%rip), %xmm1
      8c:	f2 0f 10 05 00 00 00 00 	movsd	(%rip), %xmm0
      94:	f2 0f 58 c1 	addsd	%xmm1, %xmm0
      98:	f3 0f 7e 0d 00 00 00 00 	movq	(%rip), %xmm1
      a0:	66 0f 57 c1 	xorpd	%xmm1, %xmm0
      a4:	48 8b 45 f0 	movq	-16(%rbp), %rax
      a8:	f2 0f 10 08 	movsd	(%rax), %xmm1
      ac:	f2 0f 59 c1 	mulsd	%xmm1, %xmm0
      b0:	48 8b 45 e8 	movq	-24(%rbp), %rax
      b4:	f2 0f 11 00 	movsd	%xmm0, (%rax)
      b8:	f2 0f 10 0d 00 00 00 00 	movsd	(%rip), %xmm1
      c0:	f2 0f 10 05 00 00 00 00 	movsd	(%rip), %xmm0
      c8:	f2 0f 59 c1 	mulsd	%xmm1, %xmm0
      cc:	48 8b 45 f0 	movq	-16(%rbp), %rax
      d0:	f2 0f 10 08 	movsd	(%rax), %xmm1
      d4:	f2 0f 59 c1 	mulsd	%xmm1, %xmm0
      d8:	48 8b 45 e0 	movq	-32(%rbp), %rax
      dc:	f2 0f 11 00 	movsd	%xmm0, (%rax)
      e0:	c7 05 00 00 00 00 02 00 00 00 	movl	$2, (%rip)
      ea:	e9 31 05 00 00 	jmp	1329 <_Z5StartiRdS_S_+0x620>
      ef:	f2 0f 10 05 00 00 00 00 	movsd	(%rip), %xmm0
      f7:	f2 0f 11 05 00 00 00 00 	movsd	%xmm0, (%rip)
      ff:	f2 0f 10 05 00 00 00 00 	movsd	(%rip), %xmm0
     107:	f2 0f 11 05 00 00 00 00 	movsd	%xmm0, (%rip)
     10f:	48 8b 45 f0 	movq	-16(%rbp), %rax
     113:	f2 0f 10 05 00 00 00 00 	movsd	(%rip), %xmm0
     11b:	f2 0f 11 00 	movsd	%xmm0, (%rax)
     11f:	f2 0f 10 0d 00 00 00 00 	movsd	(%rip), %xmm1
     127:	f2 0f 10 05 00 00 00 00 	movsd	(%rip), %xmm0
     12f:	f2 0f 58 c1 	addsd	%xmm1, %xmm0
     133:	f3 0f 7e 0d 00 00 00 00 	movq	(%rip), %xmm1
     13b:	66 0f 57 c1 	xorpd	%xmm1, %xmm0
     13f:	48 8b 45 f0 	movq	-16(%rbp), %rax
     143:	f2 0f 10 08 	movsd	(%rax), %xmm1
     147:	f2 0f 59 c1 	mulsd	%xmm1, %xmm0
     14b:	48 8b 45 e8 	movq	-24(%rbp), %rax
     14f:	f2 0f 11 00 	movsd	%xmm0, (%rax)
     153:	f2 0f 10 0d 00 00 00 00 	movsd	(%rip), %xmm1
     15b:	f2 0f 10 05 00 00 00 00 	movsd	(%rip), %xmm0
     163:	f2 0f 59 c1 	mulsd	%xmm1, %xmm0
     167:	48 8b 45 f0 	movq	-16(%rbp), %rax
     16b:	f2 0f 10 08 	movsd	(%rax), %xmm1
     16f:	f2 0f 59 c1 	mulsd	%xmm1, %xmm0
     173:	48 8b 45 e0 	movq	-32(%rbp), %rax
     177:	f2 0f 11 00 	movsd	%xmm0, (%rax)
     17b:	c7 05 00 00 00 00 02 00 00 00 	movl	$2, (%rip)
     185:	e9 96 04 00 00 	jmp	1174 <_Z5StartiRdS_S_+0x620>
     18a:	48 8b 45 f0 	movq	-16(%rbp), %rax
     18e:	66 0f ef c0 	pxor	%xmm0, %xmm0
     192:	f2 0f 11 00 	movsd	%xmm0, (%rax)
     196:	48 8b 45 e8 	movq	-24(%rbp), %rax
     19a:	66 0f ef c0 	pxor	%xmm0, %xmm0
     19e:	f2 0f 11 00 	movsd	%xmm0, (%rax)
     1a2:	48 8b 45 e0 	movq	-32(%rbp), %rax
     1a6:	f2 0f 10 05 00 00 00 00 	movsd	(%rip), %xmm0
     1ae:	f2 0f 11 00 	movsd	%xmm0, (%rax)
     1b2:	c7 05 00 00 00 00 00 00 00 00 	movl	$0, (%rip)
     1bc:	e9 5f 04 00 00 	jmp	1119 <_Z5StartiRdS_S_+0x620>
     1c1:	f2 0f 10 05 00 00 00 00 	movsd	(%rip), %xmm0
     1c9:	f2 0f 11 05 00 00 00 00 	movsd	%xmm0, (%rip)
     1d1:	f2 0f 10 05 00 00 00 00 	movsd	(%rip), %xmm0
     1d9:	f2 0f 11 05 00 00 00 00 	movsd	%xmm0, (%rip)
     1e1:	48 8b 45 f0 	movq	-16(%rbp), %rax
     1e5:	f2 0f 10 05 00 00 00 00 	movsd	(%rip), %xmm0
     1ed:	f2 0f 11 00 	movsd	%xmm0, (%rax)
     1f1:	f2 0f 10 0d 00 00 00 00 	movsd	(%rip), %xmm1
     1f9:	f2 0f 10 05 00 00 00 00 	movsd	(%rip), %xmm0
     201:	f2 0f 58 c1 	addsd	%xmm1, %xmm0
     205:	f3 0f 7e 0d 00 00 00 00 	movq	(%rip), %xmm1
     20d:	66 0f 57 c1 	xorpd	%xmm1, %xmm0
     211:	48 8b 45 f0 	movq	-16(%rbp), %rax
     215:	f2 0f 10 08 	movsd	(%rax), %xmm1
     219:	f2 0f 59 c1 	mulsd	%xmm1, %xmm0
     21d:	48 8b 45 e8 	movq	-24(%rbp), %rax
     221:	f2 0f 11 00 	movsd	%xmm0, (%rax)
     225:	f2 0f 10 0d 00 00 00 00 	movsd	(%rip), %xmm1
     22d:	f2 0f 10 05 00 00 00 00 	movsd	(%rip), %xmm0
     235:	f2 0f 59 c1 	mulsd	%xmm1, %xmm0
     239:	48 8b 45 f0 	movq	-16(%rbp), %rax
     23d:	f2 0f 10 08 	movsd	(%rax), %xmm1
     241:	f2 0f 59 c1 	mulsd	%xmm1, %xmm0
     245:	48 8b 45 e0 	movq	-32(%rbp), %rax
     249:	f2 0f 11 00 	movsd	%xmm0, (%rax)
     24d:	c7 05 00 00 00 00 02 00 00 00 	movl	$2, (%rip)
     257:	e9 c4 03 00 00 	jmp	964 <_Z5StartiRdS_S_+0x620>
     25c:	48 8b 45 f0 	movq	-16(%rbp), %rax
     260:	f2 0f 10 05 00 00 00 00 	movsd	(%rip), %xmm0
     268:	f2 0f 11 00 	movsd	%xmm0, (%rax)
     26c:	48 8b 45 e8 	movq	-24(%rbp), %rax
     270:	f2 0f 10 05 00 00 00 00 	movsd	(%rip), %xmm0
     278:	f2 0f 11 00 	movsd	%xmm0, (%rax)
     27c:	48 8b 45 e0 	movq	-32(%rbp), %rax
     280:	f2 0f 10 05 00 00 00 00 	movsd	(%rip), %xmm0
     288:	f2 0f 11 00 	movsd	%xmm0, (%rax)
     28c:	f2 0f 10 05 00 00 00 00 	movsd	(%rip), %xmm0
     294:	f2 0f 11 05 00 00 00 00 	movsd	%xmm0, (%rip)
     29c:	f2 0f 10 05 00 00 00 00 	movsd	(%rip), %xmm0
     2a4:	f2 0f 11 05 00 00 00 00 	movsd	%xmm0, (%rip)
     2ac:	c7 05 00 00 00 00 02 00 00 00 	movl	$2, (%rip)
     2b6:	c7 05 00 00 00 00 01 00 00 00 	movl	$1, (%rip)
     2c0:	e9 5b 03 00 00 	jmp	859 <_Z5StartiRdS_S_+0x620>
     2c5:	48 8b 45 f0 	movq	-16(%rbp), %rax
     2c9:	f2 0f 10 05 00 00 00 00 	movsd	(%rip), %xmm0
     2d1:	f2 0f 11 00 	movsd	%xmm0, (%rax)
     2d5:	48 8b 45 e8 	movq	-24(%rbp), %rax
     2d9:	66 0f ef c0 	pxor	%xmm0, %xmm0
     2dd:	f2 0f 11 00 	movsd	%xmm0, (%rax)
     2e1:	48 8b 45 e0 	movq	-32(%rbp), %rax
     2e5:	66 0f ef c0 	pxor	%xmm0, %xmm0
     2e9:	f2 0f 11 00 	movsd	%xmm0, (%rax)
     2ed:	66 0f ef c0 	pxor	%xmm0, %xmm0
     2f1:	f2 0f 11 05 00 00 00 00 	movsd	%xmm0, (%rip)
     2f9:	66 0f ef c0 	pxor	%xmm0, %xmm0
     2fd:	f2 0f 11 05 00 00 00 00 	movsd	%xmm0, (%rip)
     305:	c7 05 00 00 00 00 01 00 00 00 	movl	$1, (%rip)
     30f:	e9 0c 03 00 00 	jmp	780 <_Z5StartiRdS_S_+0x620>
     314:	48 8b 45 f0 	movq	-16(%rbp), %rax
     318:	66 0f ef c0 	pxor	%xmm0, %xmm0
     31c:	f2 0f 11 00 	movsd	%xmm0, (%rax)
     320:	48 8b 45 e8 	movq	-24(%rbp), %rax
     324:	f2 0f 10 05 00 00 00 00 	movsd	(%rip), %xmm0
     32c:	f2 0f 11 00 	movsd	%xmm0, (%rax)
     330:	48 8b 45 e0 	movq	-32(%rbp), %rax
     334:	f2 0f 10 05 00 00 00 00 	movsd	(%rip), %xmm0
     33c:	f2 0f 11 00 	movsd	%xmm0, (%rax)
     340:	f2 0f 10 05 00 00 00 00 	movsd	(%rip), %xmm0
     348:	f2 0f 11 05 00 00 00 00 	movsd	%xmm0, (%rip)
     350:	c7 05 00 00 00 00 01 00 00 00 	movl	$1, (%rip)
     35a:	e9 c1 02 00 00 	jmp	705 <_Z5StartiRdS_S_+0x620>
     35f:	48 8b 45 f0 	movq	-16(%rbp), %rax
     363:	f2 0f 10 05 00 00 00 00 	movsd	(%rip), %xmm0
     36b:	f2 0f 11 00 	movsd	%xmm0, (%rax)
     36f:	48 8b 45 e8 	movq	-24(%rbp), %rax
     373:	66 0f ef c0 	pxor	%xmm0, %xmm0
     377:	f2 0f 11 00 	movsd	%xmm0, (%rax)
     37b:	48 8b 45 e0 	movq	-32(%rbp), %rax
     37f:	f2 0f 10 05 00 00 00 00 	movsd	(%rip), %xmm0
     387:	f2 0f 11 00 	movsd	%xmm0, (%rax)
     38b:	f2 0f 10 05 00 00 00 00 	movsd	(%rip), %xmm0
     393:	f2 0f 11 05 00 00 00 00 	movsd	%xmm0, (%rip)
     39b:	f2 0f 10 05 00 00 00 00 	movsd	(%rip), %xmm0
     3a3:	f2 0f 11 05 00 00 00 00 	movsd	%xmm0, (%rip)
     3ab:	c7 05 00 00 00 00 02 00 00 00 	movl	$2, (%rip)
     3b5:	e9 66 02 00 00 	jmp	614 <_Z5StartiRdS_S_+0x620>
     3ba:	48 8b 45 f0 	movq	-16(%rbp), %rax
     3be:	f2 0f 10 05 00 00 00 00 	movsd	(%rip), %xmm0
     3c6:	f2 0f 11 00 	movsd	%xmm0, (%rax)
     3ca:	48 8b 45 e8 	movq	-24(%rbp), %rax
     3ce:	66 0f ef c0 	pxor	%xmm0, %xmm0
     3d2:	f2 0f 11 00 	movsd	%xmm0, (%rax)
     3d6:	48 8b 45 e0 	movq	-32(%rbp), %rax
     3da:	f2 0f 10 05 00 00 00 00 	movsd	(%rip), %xmm0
     3e2:	f2 0f 11 00 	movsd	%xmm0, (%rax)
     3e6:	66 0f ef c0 	pxor	%xmm0, %xmm0
     3ea:	f2 0f 11 05 00 00 00 00 	movsd	%xmm0, (%rip)
     3f2:	f2 0f 10 05 00 00 00 00 	movsd	(%rip), %xmm0
     3fa:	f2 0f 11 05 00 00 00 00 	movsd	%xmm0, (%rip)
     402:	c7 05 00 00 00 00 02 00 00 00 	movl	$2, (%rip)
     40c:	c7 05 00 00 00 00 01 00 00 00 	movl	$1, (%rip)
     416:	e9 05 02 00 00 	jmp	517 <_Z5StartiRdS_S_+0x620>
     41b:	48 8b 45 f0 	movq	-16(%rbp), %rax
     41f:	f2 0f 10 05 00 00 00 00 	movsd	(%rip), %xmm0
     427:	f2 0f 11 00 	movsd	%xmm0, (%rax)
     42b:	48 8b 45 e8 	movq	-24(%rbp), %rax
     42f:	f2 0f 10 05 00 00 00 00 	movsd	(%rip), %xmm0
     437:	f2 0f 11 00 	movsd	%xmm0, (%rax)
     43b:	48 8b 45 e0 	movq	-32(%rbp), %rax
     43f:	f2 0f 10 05 00 00 00 00 	movsd	(%rip), %xmm0
     447:	f2 0f 11 00 	movsd	%xmm0, (%rax)
     44b:	48 8b 45 e0 	movq	-32(%rbp), %rax
     44f:	f2 0f 10 08 	movsd	(%rax), %xmm1
     453:	f3 0f 7e 05 00 00 00 00 	movq	(%rip), %xmm0
     45b:	66 0f 57 c1 	xorpd	%xmm1, %xmm0
     45f:	48 8b 45 f0 	movq	-16(%rbp), %rax
     463:	f2 0f 10 08 	movsd	(%rax), %xmm1
     467:	f2 0f 5e c1 	divsd	%xmm1, %xmm0
     46b:	e8 00 00 00 00 	callq	0 <_Z5StartiRdS_S_+0x470>
     470:	66 48 0f 7e c0 	movq	%xmm0, %rax
     475:	48 89 05 00 00 00 00 	movq	%rax, (%rip)
     47c:	f2 0f 10 0d 00 00 00 00 	movsd	(%rip), %xmm1
     484:	f3 0f 7e 05 00 00 00 00 	movq	(%rip), %xmm0
     48c:	66 0f 57 c1 	xorpd	%xmm1, %xmm0
     490:	f2 0f 11 05 00 00 00 00 	movsd	%xmm0, (%rip)
     498:	c7 05 00 00 00 00 02 00 00 00 	movl	$2, (%rip)
     4a2:	e9 79 01 00 00 	jmp	377 <_Z5StartiRdS_S_+0x620>
     4a7:	48 8b 45 f0 	movq	-16(%rbp), %rax
     4ab:	f2 0f 10 05 00 00 00 00 	movsd	(%rip), %xmm0
     4b3:	f2 0f 11 00 	movsd	%xmm0, (%rax)
     4b7:	48 8b 45 e8 	movq	-24(%rbp), %rax
     4bb:	f2 0f 10 05 00 00 00 00 	movsd	(%rip), %xmm0
     4c3:	f2 0f 11 00 	movsd	%xmm0, (%rax)
     4c7:	48 8b 45 e0 	movq	-32(%rbp), %rax
     4cb:	f2 0f 10 05 00 00 00 00 	movsd	(%rip), %xmm0
     4d3:	f2 0f 11 00 	movsd	%xmm0, (%rax)
     4d7:	48 8b 45 e8 	movq	-24(%rbp), %rax
     4db:	f2 0f 10 08 	movsd	(%rax), %xmm1
     4df:	f3 0f 7e 05 00 00 00 00 	movq	(%rip), %xmm0
     4e7:	66 0f 57 c1 	xorpd	%xmm1, %xmm0
     4eb:	48 8b 45 f0 	movq	-16(%rbp), %rax
     4ef:	f2 0f 10 08 	movsd	(%rax), %xmm1
     4f3:	f2 0f 5e c1 	divsd	%xmm1, %xmm0
     4f7:	f2 0f 11 05 00 00 00 00 	movsd	%xmm0, (%rip)
     4ff:	48 8b 45 e0 	movq	-32(%rbp), %rax
     503:	f2 0f 10 00 	movsd	(%rax), %xmm0
     507:	48 8b 45 f0 	movq	-16(%rbp), %rax
     50b:	f2 0f 10 08 	movsd	(%rax), %xmm1
     50f:	f2 0f 5e c1 	divsd	%xmm1, %xmm0
     513:	e8 00 00 00 00 	callq	0 <_Z5StartiRdS_S_+0x518>
     518:	66 48 0f 7e c0 	movq	%xmm0, %rax
     51d:	48 89 05 00 00 00 00 	movq	%rax, (%rip)
     524:	c7 05 00 00 00 00 02 00 00 00 	movl	$2, (%rip)
     52e:	c7 05 00 00 00 00 01 00 00 00 	movl	$1, (%rip)
     538:	e9 e3 00 00 00 	jmp	227 <_Z5StartiRdS_S_+0x620>
     53d:	48 8b 45 f0 	movq	-16(%rbp), %rax
     541:	66 0f ef c0 	pxor	%xmm0, %xmm0
     545:	f2 0f 11 00 	movsd	%xmm0, (%rax)
     549:	48 8b 45 e8 	movq	-24(%rbp), %rax
     54d:	66 0f ef c0 	pxor	%xmm0, %xmm0
     551:	f2 0f 11 00 	movsd	%xmm0, (%rax)
     555:	48 8b 45 e0 	movq	-32(%rbp), %rax
     559:	66 0f ef c0 	pxor	%xmm0, %xmm0
     55d:	f2 0f 11 00 	movsd	%xmm0, (%rax)
     561:	c7 05 00 00 00 00 ff ff ff ff 	movl	$4294967295, (%rip)
     56b:	e9 b0 00 00 00 	jmp	176 <_Z5StartiRdS_S_+0x620>
     570:	48 8b 45 f0 	movq	-16(%rbp), %rax
     574:	66 0f ef c0 	pxor	%xmm0, %xmm0
     578:	f2 0f 11 00 	movsd	%xmm0, (%rax)
     57c:	48 8b 45 e8 	movq	-24(%rbp), %rax
     580:	f2 0f 10 05 00 00 00 00 	movsd	(%rip), %xmm0
     588:	f2 0f 11 00 	movsd	%xmm0, (%rax)
     58c:	48 8b 45 e0 	movq	-32(%rbp), %rax
     590:	66 0f ef c0 	pxor	%xmm0, %xmm0
     594:	f2 0f 11 00 	movsd	%xmm0, (%rax)
     598:	66 0f ef c0 	pxor	%xmm0, %xmm0
     59c:	f2 0f 11 05 00 00 00 00 	movsd	%xmm0, (%rip)
     5a4:	c7 05 00 00 00 00 01 00 00 00 	movl	$1, (%rip)
     5ae:	eb 70 	jmp	112 <_Z5StartiRdS_S_+0x620>
     5b0:	48 8d 35 00 00 00 00 	leaq	(%rip), %rsi
     5b7:	48 8b 05 00 00 00 00 	movq	(%rip), %rax
     5be:	48 89 c7 	movq	%rax, %rdi
     5c1:	e8 00 00 00 00 	callq	0 <_Z5StartiRdS_S_+0x5c6>
     5c6:	48 89 c2 	movq	%rax, %rdx
     5c9:	8b 45 fc 	movl	-4(%rbp), %eax
     5cc:	89 c6 	movl	%eax, %esi
     5ce:	48 89 d7 	movq	%rdx, %rdi
     5d1:	e8 00 00 00 00 	callq	0 <_Z5StartiRdS_S_+0x5d6>
     5d6:	48 8d 35 00 00 00 00 	leaq	(%rip), %rsi
     5dd:	48 89 c7 	movq	%rax, %rdi
     5e0:	e8 00 00 00 00 	callq	0 <_Z5StartiRdS_S_+0x5e5>
     5e5:	be 0d 00 00 00 	movl	$13, %esi
     5ea:	48 89 c7 	movq	%rax, %rdi
     5ed:	e8 00 00 00 00 	callq	0 <_Z5StartiRdS_S_+0x5f2>
     5f2:	48 8d 35 00 00 00 00 	leaq	(%rip), %rsi
     5f9:	48 89 c7 	movq	%rax, %rdi
     5fc:	e8 00 00 00 00 	callq	0 <_Z5StartiRdS_S_+0x601>
     601:	48 89 c2 	movq	%rax, %rdx
     604:	48 8b 05 00 00 00 00 	movq	(%rip), %rax
     60b:	48 89 c6 	movq	%rax, %rsi
     60e:	48 89 d7 	movq	%rdx, %rdi
     611:	e8 00 00 00 00 	callq	0 <_Z5StartiRdS_S_+0x616>
     616:	bf 01 00 00 00 	movl	$1, %edi
     61b:	e8 00 00 00 00 	callq	0 <_Z5StartiRdS_S_+0x620>
     620:	90 	nop
     621:	c9 	leave
     622:	c3 	retq

_Z21TesteReelleNullstelledd:
     623:	55 	pushq	%rbp
     624:	48 89 e5 	movq	%rsp, %rbp
     627:	53 	pushq	%rbx
     628:	48 83 ec 38 	subq	$56, %rsp
     62c:	f2 0f 11 45 d8 	movsd	%xmm0, -40(%rbp)
     631:	f2 0f 11 4d d0 	movsd	%xmm1, -48(%rbp)
     636:	f2 0f 10 4d d8 	movsd	-40(%rbp), %xmm1
     63b:	f3 0f 7e 05 00 00 00 00 	movq	(%rip), %xmm0
     643:	66 0f 54 c1 	andpd	%xmm1, %xmm0
     647:	f2 0f 10 0d 00 00 00 00 	movsd	(%rip), %xmm1
     64f:	66 0f 2e c1 	ucomisd	%xmm1, %xmm0
     653:	76 67 	jbe	103 <_Z21TesteReelleNullstelledd+0x99>
     655:	48 8d 35 00 00 00 00 	leaq	(%rip), %rsi
     65c:	48 8b 05 00 00 00 00 	movq	(%rip), %rax
     663:	48 89 c7 	movq	%rax, %rdi
     666:	e8 00 00 00 00 	callq	0 <_Z21TesteReelleNullstelledd+0x48>
     66b:	48 89 c3 	movq	%rax, %rbx
     66e:	bf 0c 00 00 00 	movl	$12, %edi
     673:	e8 00 00 00 00 	callq	0 <_Z21TesteReelleNullstelledd+0x55>
     678:	89 c6 	movl	%eax, %esi
     67a:	48 89 df 	movq	%rbx, %rdi
     67d:	e8 00 00 00 00 	callq	0 <_Z21TesteReelleNullstelledd+0x5f>
     682:	48 89 c2 	movq	%rax, %rdx
     685:	f2 0f 10 45 d0 	movsd	-48(%rbp), %xmm0
     68a:	f2 0f 5c 45 d8 	subsd	-40(%rbp), %xmm0
     68f:	f2 0f 5e 45 d8 	divsd	-40(%rbp), %xmm0
     694:	f3 0f 7e 0d 00 00 00 00 	movq	(%rip), %xmm1
     69c:	66 0f 54 c1 	andpd	%xmm1, %xmm0
     6a0:	f2 0f 11 45 e8 	movsd	%xmm0, -24(%rbp)
     6a5:	48 8b 45 e8 	movq	-24(%rbp), %rax
     6a9:	48 89 45 c8 	movq	%rax, -56(%rbp)
     6ad:	f2 0f 10 45 c8 	movsd	-56(%rbp), %xmm0
     6b2:	48 89 d7 	movq	%rdx, %rdi
     6b5:	e8 00 00 00 00 	callq	0 <_Z21TesteReelleNullstelledd+0x97>
     6ba:	eb 60 	jmp	96 <_Z21TesteReelleNullstelledd+0xf9>
     6bc:	48 8d 35 00 00 00 00 	leaq	(%rip), %rsi
     6c3:	48 8b 05 00 00 00 00 	movq	(%rip), %rax
     6ca:	48 89 c7 	movq	%rax, %rdi
     6cd:	e8 00 00 00 00 	callq	0 <_Z21TesteReelleNullstelledd+0xaf>
     6d2:	48 89 c3 	movq	%rax, %rbx
     6d5:	bf 0c 00 00 00 	movl	$12, %edi
     6da:	e8 00 00 00 00 	callq	0 <_Z21TesteReelleNullstelledd+0xbc>
     6df:	89 c6 	movl	%eax, %esi
     6e1:	48 89 df 	movq	%rbx, %rdi
     6e4:	e8 00 00 00 00 	callq	0 <_Z21TesteReelleNullstelledd+0xc6>
     6e9:	48 89 c2 	movq	%rax, %rdx
     6ec:	f2 0f 10 45 d0 	movsd	-48(%rbp), %xmm0
     6f1:	f2 0f 5c 45 d8 	subsd	-40(%rbp), %xmm0
     6f6:	f3 0f 7e 0d 00 00 00 00 	movq	(%rip), %xmm1
     6fe:	66 0f 54 c1 	andpd	%xmm1, %xmm0
     702:	f2 0f 11 45 e8 	movsd	%xmm0, -24(%rbp)
     707:	48 8b 45 e8 	movq	-24(%rbp), %rax
     70b:	48 89 45 c8 	movq	%rax, -56(%rbp)
     70f:	f2 0f 10 45 c8 	movsd	-56(%rbp), %xmm0
     714:	48 89 d7 	movq	%rdx, %rdi
     717:	e8 00 00 00 00 	callq	0 <_Z21TesteReelleNullstelledd+0xf9>
     71c:	f2 0f 10 05 00 00 00 00 	movsd	(%rip), %xmm0
     724:	66 0f 2e 45 e8 	ucomisd	-24(%rbp), %xmm0
     729:	72 32 	jb	50 <_Z21TesteReelleNullstelledd+0x13a>
     72b:	48 8d 35 00 00 00 00 	leaq	(%rip), %rsi
     732:	48 8b 05 00 00 00 00 	movq	(%rip), %rax
     739:	48 89 c7 	movq	%rax, %rdi
     73c:	e8 00 00 00 00 	callq	0 <_Z21TesteReelleNullstelledd+0x11e>
     741:	48 89 c2 	movq	%rax, %rdx
     744:	48 8b 05 00 00 00 00 	movq	(%rip), %rax
     74b:	48 89 c6 	movq	%rax, %rsi
     74e:	48 89 d7 	movq	%rdx, %rdi
     751:	e8 00 00 00 00 	callq	0 <_Z21TesteReelleNullstelledd+0x133>
     756:	b8 00 00 00 00 	movl	$0, %eax
     75b:	eb 30 	jmp	48 <_Z21TesteReelleNullstelledd+0x16a>
     75d:	48 8d 35 00 00 00 00 	leaq	(%rip), %rsi
     764:	48 8b 05 00 00 00 00 	movq	(%rip), %rax
     76b:	48 89 c7 	movq	%rax, %rdi
     76e:	e8 00 00 00 00 	callq	0 <_Z21TesteReelleNullstelledd+0x150>
     773:	48 89 c2 	movq	%rax, %rdx
     776:	48 8b 05 00 00 00 00 	movq	(%rip), %rax
     77d:	48 89 c6 	movq	%rax, %rsi
     780:	48 89 d7 	movq	%rdx, %rdi
     783:	e8 00 00 00 00 	callq	0 <_Z21TesteReelleNullstelledd+0x165>
     788:	b8 01 00 00 00 	movl	$1, %eax
     78d:	48 83 c4 38 	addq	$56, %rsp
     791:	5b 	popq	%rbx
     792:	5d 	popq	%rbp
     793:	c3 	retq

_Z5Testsibdd:
     794:	55 	pushq	%rbp
     795:	48 89 e5 	movq	%rsp, %rbp
     798:	53 	pushq	%rbx
     799:	48 83 ec 38 	subq	$56, %rsp
     79d:	89 7d dc 	movl	%edi, -36(%rbp)
     7a0:	89 f0 	movl	%esi, %eax
     7a2:	f2 0f 11 45 d0 	movsd	%xmm0, -48(%rbp)
     7a7:	f2 0f 11 4d c8 	movsd	%xmm1, -56(%rbp)
     7ac:	88 45 d8 	movb	%al, -40(%rbp)
     7af:	bf 20 00 00 00 	movl	$32, %edi
     7b4:	e8 00 00 00 00 	callq	0 <_Z5Testsibdd+0x25>
     7b9:	89 c6 	movl	%eax, %esi
     7bb:	48 8b 05 00 00 00 00 	movq	(%rip), %rax
     7c2:	48 89 c7 	movq	%rax, %rdi
     7c5:	e8 00 00 00 00 	callq	0 <_Z5Testsibdd+0x36>
     7ca:	48 8d 35 00 00 00 00 	leaq	(%rip), %rsi
     7d1:	48 89 c7 	movq	%rax, %rdi
     7d4:	e8 00 00 00 00 	callq	0 <_Z5Testsibdd+0x45>
     7d9:	83 7d dc ff 	cmpl	$-1, -36(%rbp)
     7dd:	75 18 	jne	24 <_Z5Testsibdd+0x63>
     7df:	48 8d 35 00 00 00 00 	leaq	(%rip), %rsi
     7e6:	48 8b 05 00 00 00 00 	movq	(%rip), %rax
     7ed:	48 89 c7 	movq	%rax, %rdi
     7f0:	e8 00 00 00 00 	callq	0 <_Z5Testsibdd+0x61>
     7f5:	eb 2b 	jmp	43 <_Z5Testsibdd+0x8e>
     7f7:	bf 09 00 00 00 	movl	$9, %edi
     7fc:	e8 00 00 00 00 	callq	0 <_Z5Testsibdd+0x6d>
     801:	89 c6 	movl	%eax, %esi
     803:	48 8b 05 00 00 00 00 	movq	(%rip), %rax
     80a:	48 89 c7 	movq	%rax, %rdi
     80d:	e8 00 00 00 00 	callq	0 <_Z5Testsibdd+0x7e>
     812:	48 89 c2 	movq	%rax, %rdx
     815:	8b 45 dc 	movl	-36(%rbp), %eax
     818:	89 c6 	movl	%eax, %esi
     81a:	48 89 d7 	movq	%rdx, %rdi
     81d:	e8 00 00 00 00 	callq	0 <_Z5Testsibdd+0x8e>
     822:	8b 05 00 00 00 00 	movl	(%rip), %eax
     828:	39 45 dc 	cmpl	%eax, -36(%rbp)
     82b:	74 35 	je	53 <_Z5Testsibdd+0xce>
     82d:	48 8d 35 00 00 00 00 	leaq	(%rip), %rsi
     834:	48 8b 05 00 00 00 00 	movq	(%rip), %rax
     83b:	48 89 c7 	movq	%rax, %rdi
     83e:	e8 00 00 00 00 	callq	0 <_Z5Testsibdd+0xaf>
     843:	48 89 c2 	movq	%rax, %rdx
     846:	48 8b 05 00 00 00 00 	movq	(%rip), %rax
     84d:	48 89 c6 	movq	%rax, %rsi
     850:	48 89 d7 	movq	%rdx, %rdi
     853:	e8 00 00 00 00 	callq	0 <_Z5Testsibdd+0xc4>
     858:	b8 01 00 00 00 	movl	$1, %eax
     85d:	e9 22 05 00 00 	jmp	1314 <_Z5Testsibdd+0x5f0>
     862:	48 8d 35 00 00 00 00 	leaq	(%rip), %rsi
     869:	48 8b 05 00 00 00 00 	movq	(%rip), %rax
     870:	48 89 c7 	movq	%rax, %rdi
     873:	e8 00 00 00 00 	callq	0 <_Z5Testsibdd+0xe4>
     878:	48 89 c2 	movq	%rax, %rdx
     87b:	48 8b 05 00 00 00 00 	movq	(%rip), %rax
     882:	48 89 c6 	movq	%rax, %rsi
     885:	48 89 d7 	movq	%rdx, %rdi
     888:	e8 00 00 00 00 	callq	0 <_Z5Testsibdd+0xf9>
     88d:	83 7d dc 00 	cmpl	$0, -36(%rbp)
     891:	0f 8e e8 04 00 00 	jle	1256 <_Z5Testsibdd+0x5eb>
     897:	48 8d 35 00 00 00 00 	leaq	(%rip), %rsi
     89e:	48 8b 05 00 00 00 00 	movq	(%rip), %rax
     8a5:	48 89 c7 	movq	%rax, %rdi
     8a8:	e8 00 00 00 00 	callq	0 <_Z5Testsibdd+0x119>
     8ad:	48 89 c2 	movq	%rax, %rdx
     8b0:	80 7d d8 00 	cmpb	$0, -40(%rbp)
     8b4:	74 09 	je	9 <_Z5Testsibdd+0x12b>
     8b6:	48 8d 05 00 00 00 00 	leaq	(%rip), %rax
     8bd:	eb 07 	jmp	7 <_Z5Testsibdd+0x132>
     8bf:	48 8d 05 00 00 00 00 	leaq	(%rip), %rax
     8c6:	48 89 c6 	movq	%rax, %rsi
     8c9:	48 89 d7 	movq	%rdx, %rdi
     8cc:	e8 00 00 00 00 	callq	0 <_Z5Testsibdd+0x13d>
     8d1:	0f b6 55 d8 	movzbl	-40(%rbp), %edx
     8d5:	8b 05 00 00 00 00 	movl	(%rip), %eax
     8db:	39 c2 	cmpl	%eax, %edx
     8dd:	74 35 	je	53 <_Z5Testsibdd+0x180>
     8df:	48 8d 35 00 00 00 00 	leaq	(%rip), %rsi
     8e6:	48 8b 05 00 00 00 00 	movq	(%rip), %rax
     8ed:	48 89 c7 	movq	%rax, %rdi
     8f0:	e8 00 00 00 00 	callq	0 <_Z5Testsibdd+0x161>
     8f5:	48 89 c2 	movq	%rax, %rdx
     8f8:	48 8b 05 00 00 00 00 	movq	(%rip), %rax
     8ff:	48 89 c6 	movq	%rax, %rsi
     902:	48 89 d7 	movq	%rdx, %rdi
     905:	e8 00 00 00 00 	callq	0 <_Z5Testsibdd+0x176>
     90a:	b8 01 00 00 00 	movl	$1, %eax
     90f:	e9 70 04 00 00 	jmp	1136 <_Z5Testsibdd+0x5f0>
     914:	48 8d 35 00 00 00 00 	leaq	(%rip), %rsi
     91b:	48 8b 05 00 00 00 00 	movq	(%rip), %rax
     922:	48 89 c7 	movq	%rax, %rdi
     925:	e8 00 00 00 00 	callq	0 <_Z5Testsibdd+0x196>
     92a:	48 89 c2 	movq	%rax, %rdx
     92d:	48 8b 05 00 00 00 00 	movq	(%rip), %rax
     934:	48 89 c6 	movq	%rax, %rsi
     937:	48 89 d7 	movq	%rdx, %rdi
     93a:	e8 00 00 00 00 	callq	0 <_Z5Testsibdd+0x1ab>
     93f:	83 7d dc 01 	cmpl	$1, -36(%rbp)
     943:	75 6d 	jne	109 <_Z5Testsibdd+0x21e>
     945:	48 8d 35 00 00 00 00 	leaq	(%rip), %rsi
     94c:	48 8b 05 00 00 00 00 	movq	(%rip), %rax
     953:	48 89 c7 	movq	%rax, %rdi
     956:	e8 00 00 00 00 	callq	0 <_Z5Testsibdd+0x1c7>
     95b:	48 89 c2 	movq	%rax, %rdx
     95e:	48 8b 45 d0 	movq	-48(%rbp), %rax
     962:	48 89 45 c0 	movq	%rax, -64(%rbp)
     966:	f2 0f 10 45 c0 	movsd	-64(%rbp), %xmm0
     96b:	48 89 d7 	movq	%rdx, %rdi
     96e:	e8 00 00 00 00 	callq	0 <_Z5Testsibdd+0x1df>
     973:	48 8d 35 00 00 00 00 	leaq	(%rip), %rsi
     97a:	48 89 c7 	movq	%rax, %rdi
     97d:	e8 00 00 00 00 	callq	0 <_Z5Testsibdd+0x1ee>
     982:	48 8b 05 00 00 00 00 	movq	(%rip), %rax
     989:	f2 0f 10 45 d0 	movsd	-48(%rbp), %xmm0
     98e:	66 0f 28 c8 	movapd	%xmm0, %xmm1
     992:	48 89 45 c0 	movq	%rax, -64(%rbp)
     996:	f2 0f 10 45 c0 	movsd	-64(%rbp), %xmm0
     99b:	e8 00 00 00 00 	callq	0 <_Z5Testsibdd+0x20c>
     9a0:	84 c0 	testb	%al, %al
     9a2:	0f 84 d7 03 00 00 	je	983 <_Z5Testsibdd+0x5eb>
     9a8:	b8 01 00 00 00 	movl	$1, %eax
     9ad:	e9 d2 03 00 00 	jmp	978 <_Z5Testsibdd+0x5f0>
     9b2:	80 7d d8 00 	cmpb	$0, -40(%rbp)
     9b6:	0f 84 fc 01 00 00 	je	508 <_Z5Testsibdd+0x424>
     9bc:	f2 0f 10 05 00 00 00 00 	movsd	(%rip), %xmm0
     9c4:	66 0f 28 c8 	movapd	%xmm0, %xmm1
     9c8:	f2 0f 5c 4d d0 	subsd	-48(%rbp), %xmm1
     9cd:	f2 0f 10 05 00 00 00 00 	movsd	(%rip), %xmm0
     9d5:	f2 0f 5c 45 d0 	subsd	-48(%rbp), %xmm0
     9da:	f2 0f 59 c8 	mulsd	%xmm0, %xmm1
     9de:	f2 0f 10 15 00 00 00 00 	movsd	(%rip), %xmm2
     9e6:	f2 0f 10 5d c8 	movsd	-56(%rbp), %xmm3
     9eb:	f3 0f 7e 05 00 00 00 00 	movq	(%rip), %xmm0
     9f3:	66 0f 54 c3 	andpd	%xmm3, %xmm0
     9f7:	f2 0f 5c d0 	subsd	%xmm0, %xmm2
     9fb:	f2 0f 10 1d 00 00 00 00 	movsd	(%rip), %xmm3
     a03:	f2 0f 10 65 c8 	movsd	-56(%rbp), %xmm4
     a08:	f3 0f 7e 05 00 00 00 00 	movq	(%rip), %xmm0
     a10:	66 0f 54 c4 	andpd	%xmm4, %xmm0
     a14:	f2 0f 5c d8 	subsd	%xmm0, %xmm3
     a18:	66 0f 28 c3 	movapd	%xmm3, %xmm0
     a1c:	f2 0f 59 c2 	mulsd	%xmm2, %xmm0
     a20:	f2 0f 58 c1 	addsd	%xmm1, %xmm0
     a24:	f2 0f 10 15 00 00 00 00 	movsd	(%rip), %xmm2
     a2c:	f2 0f 10 0d 00 00 00 00 	movsd	(%rip), %xmm1
     a34:	f2 0f 59 d1 	mulsd	%xmm1, %xmm2
     a38:	f2 0f 10 1d 00 00 00 00 	movsd	(%rip), %xmm3
     a40:	f2 0f 10 0d 00 00 00 00 	movsd	(%rip), %xmm1
     a48:	f2 0f 59 cb 	mulsd	%xmm3, %xmm1
     a4c:	f2 0f 58 ca 	addsd	%xmm2, %xmm1
     a50:	f2 0f 5e c1 	divsd	%xmm1, %xmm0
     a54:	e8 00 00 00 00 	callq	0 <_Z5Testsibdd+0x2c5>
     a59:	66 48 0f 7e c0 	movq	%xmm0, %rax
     a5e:	48 89 45 e0 	movq	%rax, -32(%rbp)
     a62:	48 8d 35 00 00 00 00 	leaq	(%rip), %rsi
     a69:	48 8b 05 00 00 00 00 	movq	(%rip), %rax
     a70:	48 89 c7 	movq	%rax, %rdi
     a73:	e8 00 00 00 00 	callq	0 <_Z5Testsibdd+0x2e4>
     a78:	48 89 c2 	movq	%rax, %rdx
     a7b:	48 8b 45 d0 	movq	-48(%rbp), %rax
     a7f:	48 89 45 c0 	movq	%rax, -64(%rbp)
     a83:	f2 0f 10 45 c0 	movsd	-64(%rbp), %xmm0
     a88:	48 89 d7 	movq	%rdx, %rdi
     a8b:	e8 00 00 00 00 	callq	0 <_Z5Testsibdd+0x2fc>
     a90:	48 8d 35 00 00 00 00 	leaq	(%rip), %rsi
     a97:	48 89 c7 	movq	%rax, %rdi
     a9a:	e8 00 00 00 00 	callq	0 <_Z5Testsibdd+0x30b>
     a9f:	48 89 c2 	movq	%rax, %rdx
     aa2:	48 8b 45 c8 	movq	-56(%rbp), %rax
     aa6:	48 89 45 c0 	movq	%rax, -64(%rbp)
     aaa:	f2 0f 10 45 c0 	movsd	-64(%rbp), %xmm0
     aaf:	48 89 d7 	movq	%rdx, %rdi
     ab2:	e8 00 00 00 00 	callq	0 <_Z5Testsibdd+0x323>
     ab7:	48 8d 35 00 00 00 00 	leaq	(%rip), %rsi
     abe:	48 89 c7 	movq	%rax, %rdi
     ac1:	e8 00 00 00 00 	callq	0 <_Z5Testsibdd+0x332>
     ac6:	48 8d 35 00 00 00 00 	leaq	(%rip), %rsi
     acd:	48 89 c7 	movq	%rax, %rdi
     ad0:	e8 00 00 00 00 	callq	0 <_Z5Testsibdd+0x341>
     ad5:	48 89 c3 	movq	%rax, %rbx
     ad8:	bf 0c 00 00 00 	movl	$12, %edi
     add:	e8 00 00 00 00 	callq	0 <_Z5Testsibdd+0x34e>
     ae2:	89 c6 	movl	%eax, %esi
     ae4:	48 89 df 	movq	%rbx, %rdi
     ae7:	e8 00 00 00 00 	callq	0 <_Z5Testsibdd+0x358>
     aec:	48 89 c2 	movq	%rax, %rdx
     aef:	48 8b 45 e0 	movq	-32(%rbp), %rax
     af3:	48 89 45 c0 	movq	%rax, -64(%rbp)
     af7:	f2 0f 10 45 c0 	movsd	-64(%rbp), %xmm0
     afc:	48 89 d7 	movq	%rdx, %rdi
     aff:	e8 00 00 00 00 	callq	0 <_Z5Testsibdd+0x370>
     b04:	66 0f ef c0 	pxor	%xmm0, %xmm0
     b08:	66 0f 2e 45 c8 	ucomisd	-56(%rbp), %xmm0
     b0d:	76 35 	jbe	53 <_Z5Testsibdd+0x3b0>
     b0f:	48 8d 35 00 00 00 00 	leaq	(%rip), %rsi
     b16:	48 8b 05 00 00 00 00 	movq	(%rip), %rax
     b1d:	48 89 c7 	movq	%rax, %rdi
     b20:	e8 00 00 00 00 	callq	0 <_Z5Testsibdd+0x391>
     b25:	48 89 c2 	movq	%rax, %rdx
     b28:	48 8b 05 00 00 00 00 	movq	(%rip), %rax
     b2f:	48 89 c6 	movq	%rax, %rsi
     b32:	48 89 d7 	movq	%rdx, %rdi
     b35:	e8 00 00 00 00 	callq	0 <_Z5Testsibdd+0x3a6>
     b3a:	b8 01 00 00 00 	movl	$1, %eax
     b3f:	e9 40 02 00 00 	jmp	576 <_Z5Testsibdd+0x5f0>
     b44:	f2 0f 10 05 00 00 00 00 	movsd	(%rip), %xmm0
     b4c:	66 0f 2e 45 e0 	ucomisd	-32(%rbp), %xmm0
     b51:	72 30 	jb	48 <_Z5Testsibdd+0x3ef>
     b53:	48 8d 35 00 00 00 00 	leaq	(%rip), %rsi
     b5a:	48 8b 05 00 00 00 00 	movq	(%rip), %rax
     b61:	48 89 c7 	movq	%rax, %rdi
     b64:	e8 00 00 00 00 	callq	0 <_Z5Testsibdd+0x3d5>
     b69:	48 89 c2 	movq	%rax, %rdx
     b6c:	48 8b 05 00 00 00 00 	movq	(%rip), %rax
     b73:	48 89 c6 	movq	%rax, %rsi
     b76:	48 89 d7 	movq	%rdx, %rdi
     b79:	e8 00 00 00 00 	callq	0 <_Z5Testsibdd+0x3ea>
     b7e:	e9 fc 01 00 00 	jmp	508 <_Z5Testsibdd+0x5eb>
     b83:	48 8d 35 00 00 00 00 	leaq	(%rip), %rsi
     b8a:	48 8b 05 00 00 00 00 	movq	(%rip), %rax
     b91:	48 89 c7 	movq	%rax, %rdi
     b94:	e8 00 00 00 00 	callq	0 <_Z5Testsibdd+0x405>
     b99:	48 89 c2 	movq	%rax, %rdx
     b9c:	48 8b 05 00 00 00 00 	movq	(%rip), %rax
     ba3:	48 89 c6 	movq	%rax, %rsi
     ba6:	48 89 d7 	movq	%rdx, %rdi
     ba9:	e8 00 00 00 00 	callq	0 <_Z5Testsibdd+0x41a>
     bae:	b8 01 00 00 00 	movl	$1, %eax
     bb3:	e9 cc 01 00 00 	jmp	460 <_Z5Testsibdd+0x5f0>
     bb8:	48 8d 35 00 00 00 00 	leaq	(%rip), %rsi
     bbf:	48 8b 05 00 00 00 00 	movq	(%rip), %rax
     bc6:	48 89 c7 	movq	%rax, %rdi
     bc9:	e8 00 00 00 00 	callq	0 <_Z5Testsibdd+0x43a>
     bce:	48 89 c2 	movq	%rax, %rdx
     bd1:	48 8b 45 d0 	movq	-48(%rbp), %rax
     bd5:	48 89 45 c0 	movq	%rax, -64(%rbp)
     bd9:	f2 0f 10 45 c0 	movsd	-64(%rbp), %xmm0
     bde:	48 89 d7 	movq	%rdx, %rdi
     be1:	e8 00 00 00 00 	callq	0 <_Z5Testsibdd+0x452>
     be6:	48 8d 35 00 00 00 00 	leaq	(%rip), %rsi
     bed:	48 89 c7 	movq	%rax, %rdi
     bf0:	e8 00 00 00 00 	callq	0 <_Z5Testsibdd+0x461>
     bf5:	f2 0f 10 4d d0 	movsd	-48(%rbp), %xmm1
     bfa:	f3 0f 7e 05 00 00 00 00 	movq	(%rip), %xmm0
     c02:	66 0f 54 c8 	andpd	%xmm0, %xmm1
     c06:	f2 0f 10 55 c8 	movsd	-56(%rbp), %xmm2
     c0b:	f3 0f 7e 05 00 00 00 00 	movq	(%rip), %xmm0
     c13:	66 0f 54 c2 	andpd	%xmm2, %xmm0
     c17:	66 0f 2e c1 	ucomisd	%xmm1, %xmm0
     c1b:	76 72 	jbe	114 <_Z5Testsibdd+0x4fb>
     c1d:	48 8d 35 00 00 00 00 	leaq	(%rip), %rsi
     c24:	48 8b 05 00 00 00 00 	movq	(%rip), %rax
     c2b:	48 89 c7 	movq	%rax, %rdi
     c2e:	e8 00 00 00 00 	callq	0 <_Z5Testsibdd+0x49f>
     c33:	48 89 c2 	movq	%rax, %rdx
     c36:	48 8b 45 c8 	movq	-56(%rbp), %rax
     c3a:	48 89 45 c0 	movq	%rax, -64(%rbp)
     c3e:	f2 0f 10 45 c0 	movsd	-64(%rbp), %xmm0
     c43:	48 89 d7 	movq	%rdx, %rdi
     c46:	e8 00 00 00 00 	callq	0 <_Z5Testsibdd+0x4b7>
     c4b:	48 8d 35 00 00 00 00 	leaq	(%rip), %rsi
     c52:	48 8b 05 00 00 00 00 	movq	(%rip), %rax
     c59:	48 89 c7 	movq	%rax, %rdi
     c5c:	e8 00 00 00 00 	callq	0 <_Z5Testsibdd+0x4cd>
     c61:	48 8d 35 00 00 00 00 	leaq	(%rip), %rsi
     c68:	48 89 c7 	movq	%rax, %rdi
     c6b:	e8 00 00 00 00 	callq	0 <_Z5Testsibdd+0x4dc>
     c70:	48 89 c2 	movq	%rax, %rdx
     c73:	48 8b 05 00 00 00 00 	movq	(%rip), %rax
     c7a:	48 89 c6 	movq	%rax, %rsi
     c7d:	48 89 d7 	movq	%rdx, %rdi
     c80:	e8 00 00 00 00 	callq	0 <_Z5Testsibdd+0x4f1>
     c85:	b8 01 00 00 00 	movl	$1, %eax
     c8a:	e9 f5 00 00 00 	jmp	245 <_Z5Testsibdd+0x5f0>
     c8f:	f2 0f 10 0d 00 00 00 00 	movsd	(%rip), %xmm1
     c97:	f3 0f 7e 05 00 00 00 00 	movq	(%rip), %xmm0
     c9f:	66 0f 54 c1 	andpd	%xmm1, %xmm0
     ca3:	f2 0f 10 15 00 00 00 00 	movsd	(%rip), %xmm2
     cab:	f3 0f 7e 0d 00 00 00 00 	movq	(%rip), %xmm1
     cb3:	66 0f 54 ca 	andpd	%xmm2, %xmm1
     cb7:	66 0f 2e c1 	ucomisd	%xmm1, %xmm0
     cbb:	7a 30 	jp	48 <_Z5Testsibdd+0x559>
     cbd:	66 0f 2e c1 	ucomisd	%xmm1, %xmm0
     cc1:	75 2a 	jne	42 <_Z5Testsibdd+0x559>
     cc3:	f2 0f 10 05 00 00 00 00 	movsd	(%rip), %xmm0
     ccb:	f2 0f 59 45 d0 	mulsd	-48(%rbp), %xmm0
     cd0:	66 0f ef c9 	pxor	%xmm1, %xmm1
     cd4:	66 0f 2e c8 	ucomisd	%xmm0, %xmm1
     cd8:	76 13 	jbe	19 <_Z5Testsibdd+0x559>
     cda:	48 8d 35 00 00 00 00 	leaq	(%rip), %rsi
     ce1:	48 8d 3d 00 00 00 00 	leaq	(%rip), %rdi
     ce8:	e8 00 00 00 00 	callq	0 <_Z5Testsibdd+0x559>
     ced:	48 8b 05 00 00 00 00 	movq	(%rip), %rax
     cf4:	f2 0f 10 45 d0 	movsd	-48(%rbp), %xmm0
     cf9:	66 0f 28 c8 	movapd	%xmm0, %xmm1
     cfd:	48 89 45 c0 	movq	%rax, -64(%rbp)
     d01:	f2 0f 10 45 c0 	movsd	-64(%rbp), %xmm0
     d06:	e8 00 00 00 00 	callq	0 <_Z5Testsibdd+0x577>
     d0b:	88 45 ef 	movb	%al, -17(%rbp)
     d0e:	48 8d 35 00 00 00 00 	leaq	(%rip), %rsi
     d15:	48 8b 05 00 00 00 00 	movq	(%rip), %rax
     d1c:	48 89 c7 	movq	%rax, %rdi
     d1f:	e8 00 00 00 00 	callq	0 <_Z5Testsibdd+0x590>
     d24:	48 89 c2 	movq	%rax, %rdx
     d27:	48 8b 45 c8 	movq	-56(%rbp), %rax
     d2b:	48 89 45 c0 	movq	%rax, -64(%rbp)
     d2f:	f2 0f 10 45 c0 	movsd	-64(%rbp), %xmm0
     d34:	48 89 d7 	movq	%rdx, %rdi
     d37:	e8 00 00 00 00 	callq	0 <_Z5Testsibdd+0x5a8>
     d3c:	48 8d 35 00 00 00 00 	leaq	(%rip), %rsi
     d43:	48 89 c7 	movq	%rax, %rdi
     d46:	e8 00 00 00 00 	callq	0 <_Z5Testsibdd+0x5b7>
     d4b:	48 8b 05 00 00 00 00 	movq	(%rip), %rax
     d52:	f2 0f 10 45 c8 	movsd	-56(%rbp), %xmm0
     d57:	66 0f 28 c8 	movapd	%xmm0, %xmm1
     d5b:	48 89 45 c0 	movq	%rax, -64(%rbp)
     d5f:	f2 0f 10 45 c0 	movsd	-64(%rbp), %xmm0
     d64:	e8 00 00 00 00 	callq	0 <_Z5Testsibdd+0x5d5>
     d69:	88 45 ee 	movb	%al, -18(%rbp)
     d6c:	80 7d ef 00 	cmpb	$0, -17(%rbp)
     d70:	75 06 	jne	6 <_Z5Testsibdd+0x5e4>
     d72:	80 7d ee 00 	cmpb	$0, -18(%rbp)
     d76:	74 07 	je	7 <_Z5Testsibdd+0x5eb>
     d78:	b8 01 00 00 00 	movl	$1, %eax
     d7d:	eb 05 	jmp	5 <_Z5Testsibdd+0x5f0>
     d7f:	b8 00 00 00 00 	movl	$0, %eax
     d84:	48 83 c4 38 	addq	$56, %rsp
     d88:	5b 	popq	%rbx
     d89:	5d 	popq	%rbp
     d8a:	c3 	retq

_Z8Ergebnisibdd:
     d8b:	55 	pushq	%rbp
     d8c:	48 89 e5 	movq	%rsp, %rbp
     d8f:	48 83 ec 30 	subq	$48, %rsp
     d93:	89 7d ec 	movl	%edi, -20(%rbp)
     d96:	89 f0 	movl	%esi, %eax
     d98:	f2 0f 11 45 e0 	movsd	%xmm0, -32(%rbp)
     d9d:	f2 0f 11 4d d8 	movsd	%xmm1, -40(%rbp)
     da2:	88 45 e8 	movb	%al, -24(%rbp)
     da5:	8b 05 00 00 00 00 	movl	(%rip), %eax
     dab:	85 c0 	testl	%eax, %eax
     dad:	75 44 	jne	68 <_Z8Ergebnisibdd+0x68>
     daf:	48 8d 35 00 00 00 00 	leaq	(%rip), %rsi
     db6:	48 8b 05 00 00 00 00 	movq	(%rip), %rax
     dbd:	48 89 c7 	movq	%rax, %rdi
     dc0:	e8 00 00 00 00 	callq	0 <_Z8Ergebnisibdd+0x3a>
     dc5:	48 8d 35 00 00 00 00 	leaq	(%rip), %rsi
     dcc:	48 89 c7 	movq	%rax, %rdi
     dcf:	e8 00 00 00 00 	callq	0 <_Z8Ergebnisibdd+0x49>
     dd4:	48 89 c2 	movq	%rax, %rdx
     dd7:	48 8b 05 00 00 00 00 	movq	(%rip), %rax
     dde:	48 89 c6 	movq	%rax, %rsi
     de1:	48 89 d7 	movq	%rdx, %rdi
     de4:	e8 00 00 00 00 	callq	0 <_Z8Ergebnisibdd+0x5e>
     de9:	bf 00 00 00 00 	movl	$0, %edi
     dee:	e8 00 00 00 00 	callq	0 <_Z8Ergebnisibdd+0x68>
     df3:	48 8d 35 00 00 00 00 	leaq	(%rip), %rsi
     dfa:	48 8b 05 00 00 00 00 	movq	(%rip), %rax
     e01:	48 89 c7 	movq	%rax, %rdi
     e04:	e8 00 00 00 00 	callq	0 <_Z8Ergebnisibdd+0x7e>
     e09:	48 89 c2 	movq	%rax, %rdx
     e0c:	8b 05 00 00 00 00 	movl	(%rip), %eax
     e12:	89 c6 	movl	%eax, %esi
     e14:	48 89 d7 	movq	%rdx, %rdi
     e17:	e8 00 00 00 00 	callq	0 <_Z8Ergebnisibdd+0x91>
     e1c:	48 8d 35 00 00 00 00 	leaq	(%rip), %rsi
     e23:	48 89 c7 	movq	%rax, %rdi
     e26:	e8 00 00 00 00 	callq	0 <_Z8Ergebnisibdd+0xa0>
     e2b:	48 89 c2 	movq	%rax, %rdx
     e2e:	48 8b 05 00 00 00 00 	movq	(%rip), %rax
     e35:	48 89 c6 	movq	%rax, %rsi
     e38:	48 89 d7 	movq	%rdx, %rdi
     e3b:	e8 00 00 00 00 	callq	0 <_Z8Ergebnisibdd+0xb5>
     e40:	0f b6 55 e8 	movzbl	-24(%rbp), %edx
     e44:	f2 0f 10 45 d8 	movsd	-40(%rbp), %xmm0
     e49:	48 8b 4d e0 	movq	-32(%rbp), %rcx
     e4d:	8b 45 ec 	movl	-20(%rbp), %eax
     e50:	66 0f 28 c8 	movapd	%xmm0, %xmm1
     e54:	48 89 4d d0 	movq	%rcx, -48(%rbp)
     e58:	f2 0f 10 45 d0 	movsd	-48(%rbp), %xmm0
     e5d:	89 d6 	movl	%edx, %esi
     e5f:	89 c7 	movl	%eax, %edi
     e61:	e8 00 00 00 00 	callq	0 <_Z8Ergebnisibdd+0xdb>
     e66:	84 c0 	testb	%al, %al
     e68:	74 50 	je	80 <_Z8Ergebnisibdd+0x12f>
     e6a:	48 8d 35 00 00 00 00 	leaq	(%rip), %rsi
     e71:	48 8b 05 00 00 00 00 	movq	(%rip), %rax
     e78:	48 89 c7 	movq	%rax, %rdi
     e7b:	e8 00 00 00 00 	callq	0 <_Z8Ergebnisibdd+0xf5>
     e80:	48 8d 45 ff 	leaq	-1(%rbp), %rax
     e84:	48 89 c6 	movq	%rax, %rsi
     e87:	48 8b 05 00 00 00 00 	movq	(%rip), %rax
     e8e:	48 89 c7 	movq	%rax, %rdi
     e91:	e8 00 00 00 00 	callq	0 <_Z8Ergebnisibdd+0x10b>
     e96:	0f b6 45 ff 	movzbl	-1(%rbp), %eax
     e9a:	3c 66 	cmpb	$102, %al
     e9c:	74 0a 	je	10 <_Z8Ergebnisibdd+0x11d>
     e9e:	0f b6 45 ff 	movzbl	-1(%rbp), %eax
     ea2:	3c 61 	cmpb	$97, %al
     ea4:	74 02 	je	2 <_Z8Ergebnisibdd+0x11d>
     ea6:	eb d8 	jmp	-40 <_Z8Ergebnisibdd+0xf5>
     ea8:	0f b6 45 ff 	movzbl	-1(%rbp), %eax
     eac:	3c 61 	cmpb	$97, %al
     eae:	75 51 	jne	81 <_Z8Ergebnisibdd+0x176>
     eb0:	bf 00 00 00 00 	movl	$0, %edi
     eb5:	e8 00 00 00 00 	callq	0 <_Z8Ergebnisibdd+0x12f>
     eba:	48 8d 35 00 00 00 00 	leaq	(%rip), %rsi
     ec1:	48 8b 05 00 00 00 00 	movq	(%rip), %rax
     ec8:	48 89 c7 	movq	%rax, %rdi
     ecb:	e8 00 00 00 00 	callq	0 <_Z8Ergebnisibdd+0x145>
     ed0:	48 8d 45 ff 	leaq	-1(%rbp), %rax
     ed4:	48 89 c6 	movq	%rax, %rsi
     ed7:	48 8b 05 00 00 00 00 	movq	(%rip), %rax
     ede:	48 89 c7 	movq	%rax, %rdi
     ee1:	e8 00 00 00 00 	callq	0 <_Z8Ergebnisibdd+0x15b>
     ee6:	48 8b 10 	movq	(%rax), %rdx
     ee9:	48 83 ea 18 	subq	$24, %rdx
     eed:	48 8b 12 	movq	(%rdx), %rdx
     ef0:	48 01 d0 	addq	%rdx, %rax
     ef3:	48 89 c7 	movq	%rax, %rdi
     ef6:	e8 00 00 00 00 	callq	0 <_Z8Ergebnisibdd+0x170>
     efb:	84 c0 	testb	%al, %al
     efd:	74 02 	je	2 <_Z8Ergebnisibdd+0x176>
     eff:	eb cf 	jmp	-49 <_Z8Ergebnisibdd+0x145>
     f01:	0f b6 45 ff 	movzbl	-1(%rbp), %eax
     f05:	3c 0a 	cmpb	$10, %al
     f07:	74 18 	je	24 <_Z8Ergebnisibdd+0x196>
     f09:	48 8d 45 ff 	leaq	-1(%rbp), %rax
     f0d:	48 89 c6 	movq	%rax, %rsi
     f10:	48 8b 05 00 00 00 00 	movq	(%rip), %rax
     f17:	48 89 c7 	movq	%rax, %rdi
     f1a:	e8 00 00 00 00 	callq	0 <_Z8Ergebnisibdd+0x194>
     f1f:	eb e0 	jmp	-32 <_Z8Ergebnisibdd+0x176>
     f21:	48 8b 05 00 00 00 00 	movq	(%rip), %rax
     f28:	48 89 c6 	movq	%rax, %rsi
     f2b:	48 8b 05 00 00 00 00 	movq	(%rip), %rax
     f32:	48 89 c7 	movq	%rax, %rdi
     f35:	e8 00 00 00 00 	callq	0 <_Z8Ergebnisibdd+0x1af>
     f3a:	90 	nop
     f3b:	c9 	leave
     f3c:	c3 	retq

_Z41__static_initialization_and_destruction_0ii:
     f3d:	55 	pushq	%rbp
     f3e:	48 89 e5 	movq	%rsp, %rbp
     f41:	48 83 ec 10 	subq	$16, %rsp
     f45:	89 7d fc 	movl	%edi, -4(%rbp)
     f48:	89 75 f8 	movl	%esi, -8(%rbp)
     f4b:	83 7d fc 01 	cmpl	$1, -4(%rbp)
     f4f:	75 32 	jne	50 <_Z41__static_initialization_and_destruction_0ii+0x46>
     f51:	81 7d f8 ff ff 00 00 	cmpl	$65535, -8(%rbp)
     f58:	75 29 	jne	41 <_Z41__static_initialization_and_destruction_0ii+0x46>
     f5a:	48 8d 3d 00 00 00 00 	leaq	(%rip), %rdi
     f61:	e8 00 00 00 00 	callq	0 <_Z41__static_initialization_and_destruction_0ii+0x29>
     f66:	48 8d 15 00 00 00 00 	leaq	(%rip), %rdx
     f6d:	48 8d 35 00 00 00 00 	leaq	(%rip), %rsi
     f74:	48 8b 05 00 00 00 00 	movq	(%rip), %rax
     f7b:	48 89 c7 	movq	%rax, %rdi
     f7e:	e8 00 00 00 00 	callq	0 <_Z41__static_initialization_and_destruction_0ii+0x46>
     f83:	90 	nop
     f84:	c9 	leave
     f85:	c3 	retq

_GLOBAL__sub_I_unit.cpp:
     f86:	55 	pushq	%rbp
     f87:	48 89 e5 	movq	%rsp, %rbp
     f8a:	be ff ff 00 00 	movl	$65535, %esi
     f8f:	bf 01 00 00 00 	movl	$1, %edi
     f94:	e8 a4 ff ff ff 	callq	-92 <_Z41__static_initialization_and_destruction_0ii>
     f99:	5d 	popq	%rbp
     f9a:	c3 	retq
Disassembly of section .rela.text:
.rela.text:
       0:	1c 00 	sbbb	$0, %al
       2:	00 00 	addb	%al, (%rax)
       4:	00 00 	addb	%al, (%rax)
       6:	00 00 	addb	%al, (%rax)
       8:	02 00 	addb	(%rax), %al
       a:	00 00 	addb	%al, (%rax)
       c:	04 00 	addb	$0, %al
       e:	00 00 	addb	%al, (%rax)
      10:	1c 00 	sbbb	$0, %al
      12:	00 00 	addb	%al, (%rax)
      14:	00 00 	addb	%al, (%rax)
      16:	00 00 	addb	%al, (%rax)
      18:	22 00 	andb	(%rax), %al
      1a:	00 00 	addb	%al, (%rax)
      1c:	00 00 	addb	%al, (%rax)
      1e:	00 00 	addb	%al, (%rax)
      20:	02 00 	addb	(%rax), %al
      22:	00 00 	addb	%al, (%rax)
      24:	04 00 	addb	$0, %al
      26:	00 00 	addb	%al, (%rax)
      28:	14 00 	adcb	$0, %al
      2a:	00 00 	addb	%al, (%rax)
      2c:	00 00 	addb	%al, (%rax)
      2e:	00 00 	addb	%al, (%rax)
      30:	42 00 00 	addb	%al, (%rax)
      33:	00 00 	addb	%al, (%rax)
      35:	00 00 	addb	%al, (%rax)
      37:	00 02 	addb	%al, (%rdx)
      39:	00 00 	addb	%al, (%rax)
      3b:	00 05 00 00 00 6c 	addb	%al, 1811939328(%rip)
      41:	00 00 	addb	%al, (%rax)
      43:	00 00 	addb	%al, (%rax)
      45:	00 00 	addb	%al, (%rax)
      47:	00 4f 00 	addb	%cl, (%rdi)
      4a:	00 00 	addb	%al, (%rax)
      4c:	00 00 	addb	%al, (%rax)
      4e:	00 00 	addb	%al, (%rax)
      50:	02 00 	addb	(%rax), %al
      52:	00 00 	addb	%al, (%rax)
      54:	05 00 00 00 6c 	addl	$1811939328, %eax
      59:	00 00 	addb	%al, (%rax)
      5b:	00 00 	addb	%al, (%rax)
      5d:	00 00 	addb	%al, (%rax)
      5f:	00 5c 00 00 	addb	%bl, (%rax,%rax)
      63:	00 00 	addb	%al, (%rax)
      65:	00 00 	addb	%al, (%rax)
      67:	00 02 	addb	%al, (%rdx)
      69:	00 00 	addb	%al, (%rax)
      6b:	00 05 00 00 00 5c 	addb	%al, 1543503872(%rip)
      71:	03 00 	addl	(%rax), %eax
      73:	00 00 	addb	%al, (%rax)
      75:	00 00 	addb	%al, (%rax)
      77:	00 64 00 00 	addb	%ah, (%rax,%rax)
      7b:	00 00 	addb	%al, (%rax)
      7d:	00 00 	addb	%al, (%rax)
      7f:	00 02 	addb	%al, (%rdx)
      81:	00 00 	addb	%al, (%rax)
      83:	00 04 00 	addb	%al, (%rax,%rax)
      86:	00 00 	addb	%al, (%rax)
      88:	04 00 	addb	$0, %al
      8a:	00 00 	addb	%al, (%rax)
      8c:	00 00 	addb	%al, (%rax)
      8e:	00 00 	addb	%al, (%rax)
      90:	70 00 	jo	0 <.rela.text+0x92>
      92:	00 00 	addb	%al, (%rax)
      94:	00 00 	addb	%al, (%rax)
      96:	00 00 	addb	%al, (%rax)
      98:	02 00 	addb	(%rax), %al
      9a:	00 00 	addb	%al, (%rax)
      9c:	04 00 	addb	$0, %al
      9e:	00 00 	addb	%al, (%rax)
      a0:	0c 00 	orb	$0, %al
      a2:	00 00 	addb	%al, (%rax)
      a4:	00 00 	addb	%al, (%rax)
      a6:	00 00 	addb	%al, (%rax)
      a8:	7c 00 	jl	0 <.rela.text+0xaa>
      aa:	00 00 	addb	%al, (%rax)
      ac:	00 00 	addb	%al, (%rax)
      ae:	00 00 	addb	%al, (%rax)
      b0:	02 00 	addb	(%rax), %al
      b2:	00 00 	addb	%al, (%rax)
      b4:	05 00 00 00 64 	addl	$1677721600, %eax
      b9:	03 00 	addl	(%rax), %eax
      bb:	00 00 	addb	%al, (%rax)
      bd:	00 00 	addb	%al, (%rax)
      bf:	00 88 00 00 00 00 	addb	%cl, (%rax)
      c5:	00 00 	addb	%al, (%rax)
      c7:	00 02 	addb	%al, (%rdx)
      c9:	00 00 	addb	%al, (%rax)
      cb:	00 04 00 	addb	%al, (%rax,%rax)
      ce:	00 00 	addb	%al, (%rax)
      d0:	04 00 	addb	$0, %al
      d2:	00 00 	addb	%al, (%rax)
      d4:	00 00 	addb	%al, (%rax)
      d6:	00 00 	addb	%al, (%rax)
      d8:	90 	nop
      d9:	00 00 	addb	%al, (%rax)
      db:	00 00 	addb	%al, (%rax)
      dd:	00 00 	addb	%al, (%rax)
      df:	00 02 	addb	%al, (%rdx)
      e1:	00 00 	addb	%al, (%rax)
      e3:	00 04 00 	addb	%al, (%rax,%rax)
      e6:	00 00 	addb	%al, (%rax)
      e8:	0c 00 	orb	$0, %al
      ea:	00 00 	addb	%al, (%rax)
      ec:	00 00 	addb	%al, (%rax)
      ee:	00 00 	addb	%al, (%rax)
      f0:	9c 	pushfq
      f1:	00 00 	addb	%al, (%rax)
      f3:	00 00 	addb	%al, (%rax)
      f5:	00 00 	addb	%al, (%rax)
      f7:	00 02 	addb	%al, (%rdx)
      f9:	00 00 	addb	%al, (%rax)
      fb:	00 05 00 00 00 6c 	addb	%al, 1811939328(%rip)
     101:	03 00 	addl	(%rax), %eax
     103:	00 00 	addb	%al, (%rax)
     105:	00 00 	addb	%al, (%rax)
     107:	00 bc 00 00 00 00 00 	addb	%bh, (%rax,%rax)
     10e:	00 00 	addb	%al, (%rax)
     110:	02 00 	addb	(%rax), %al
     112:	00 00 	addb	%al, (%rax)
     114:	04 00 	addb	$0, %al
     116:	00 00 	addb	%al, (%rax)
     118:	04 00 	addb	$0, %al
     11a:	00 00 	addb	%al, (%rax)
     11c:	00 00 	addb	%al, (%rax)
     11e:	00 00 	addb	%al, (%rax)
     120:	c4 00 00  <unknown>
     123:	00 00 	addb	%al, (%rax)
     125:	00 00 	addb	%al, (%rax)
     127:	00 02 	addb	%al, (%rdx)
     129:	00 00 	addb	%al, (%rax)
     12b:	00 04 00 	addb	%al, (%rax,%rax)
     12e:	00 00 	addb	%al, (%rax)
     130:	0c 00 	orb	$0, %al
     132:	00 00 	addb	%al, (%rax)
     134:	00 00 	addb	%al, (%rax)
     136:	00 00 	addb	%al, (%rax)
     138:	e2 00 	loop	0
     13a:	00 00 	addb	%al, (%rax)
     13c:	00 00 	addb	%al, (%rax)
     13e:	00 00 	addb	%al, (%rax)
     140:	02 00 	addb	(%rax), %al
     142:	00 00 	addb	%al, (%rax)
     144:	04 00 	addb	$0, %al
     146:	00 00 	addb	%al, (%rax)
     148:	10 00 	adcb	%al, (%rax)
     14a:	00 00 	addb	%al, (%rax)
     14c:	00 00 	addb	%al, (%rax)
     14e:	00 00 	addb	%al, (%rax)
     150:	f3 00 00 	rep		addb	%al, (%rax)
     153:	00 00 	addb	%al, (%rax)
     155:	00 00 	addb	%al, (%rax)
     157:	00 02 	addb	%al, (%rdx)
     159:	00 00 	addb	%al, (%rax)
     15b:	00 05 00 00 00 7c 	addb	%al, 2080374784(%rip)
     161:	03 00 	addl	(%rax), %eax
     163:	00 00 	addb	%al, (%rax)
     165:	00 00 	addb	%al, (%rax)
     167:	00 fb 	addb	%bh, %bl
     169:	00 00 	addb	%al, (%rax)
     16b:	00 00 	addb	%al, (%rax)
     16d:	00 00 	addb	%al, (%rax)
     16f:	00 02 	addb	%al, (%rdx)
     171:	00 00 	addb	%al, (%rax)
     173:	00 04 00 	addb	%al, (%rax,%rax)
     176:	00 00 	addb	%al, (%rax)
     178:	04 00 	addb	$0, %al
     17a:	00 00 	addb	%al, (%rax)
     17c:	00 00 	addb	%al, (%rax)
     17e:	00 00 	addb	%al, (%rax)
     180:	03 01 	addl	(%rcx), %eax
     182:	00 00 	addb	%al, (%rax)
     184:	00 00 	addb	%al, (%rax)
     186:	00 00 	addb	%al, (%rax)
     188:	02 00 	addb	(%rax), %al
     18a:	00 00 	addb	%al, (%rax)
     18c:	05 00 00 00 84 	addl	$2214592512, %eax
     191:	03 00 	addl	(%rax), %eax
     193:	00 00 	addb	%al, (%rax)
     195:	00 00 	addb	%al, (%rax)
     197:	00 0b 	addb	%cl, (%rbx)
     199:	01 00 	addl	%eax, (%rax)
     19b:	00 00 	addb	%al, (%rax)
     19d:	00 00 	addb	%al, (%rax)
     19f:	00 02 	addb	%al, (%rdx)
     1a1:	00 00 	addb	%al, (%rax)
     1a3:	00 04 00 	addb	%al, (%rax,%rax)
     1a6:	00 00 	addb	%al, (%rax)
     1a8:	0c 00 	orb	$0, %al
     1aa:	00 00 	addb	%al, (%rax)
     1ac:	00 00 	addb	%al, (%rax)
     1ae:	00 00 	addb	%al, (%rax)
     1b0:	17  <unknown>
     1b1:	01 00 	addl	%eax, (%rax)
     1b3:	00 00 	addb	%al, (%rax)
     1b5:	00 00 	addb	%al, (%rax)
     1b7:	00 02 	addb	%al, (%rdx)
     1b9:	00 00 	addb	%al, (%rax)
     1bb:	00 05 00 00 00 8c 	addb	%al, -1946157056(%rip)
     1c1:	03 00 	addl	(%rax), %eax
     1c3:	00 00 	addb	%al, (%rax)
     1c5:	00 00 	addb	%al, (%rax)
     1c7:	00 23 	addb	%ah, (%rbx)
     1c9:	01 00 	addl	%eax, (%rax)
     1cb:	00 00 	addb	%al, (%rax)
     1cd:	00 00 	addb	%al, (%rax)
     1cf:	00 02 	addb	%al, (%rdx)
     1d1:	00 00 	addb	%al, (%rax)
     1d3:	00 04 00 	addb	%al, (%rax,%rax)
     1d6:	00 00 	addb	%al, (%rax)
     1d8:	04 00 	addb	$0, %al
     1da:	00 00 	addb	%al, (%rax)
     1dc:	00 00 	addb	%al, (%rax)
     1de:	00 00 	addb	%al, (%rax)
     1e0:	2b 01 	subl	(%rcx), %eax
     1e2:	00 00 	addb	%al, (%rax)
     1e4:	00 00 	addb	%al, (%rax)
     1e6:	00 00 	addb	%al, (%rax)
     1e8:	02 00 	addb	(%rax), %al
     1ea:	00 00 	addb	%al, (%rax)
     1ec:	04 00 	addb	$0, %al
     1ee:	00 00 	addb	%al, (%rax)
     1f0:	0c 00 	orb	$0, %al
     1f2:	00 00 	addb	%al, (%rax)
     1f4:	00 00 	addb	%al, (%rax)
     1f6:	00 00 	addb	%al, (%rax)
     1f8:	37  <unknown>
     1f9:	01 00 	addl	%eax, (%rax)
     1fb:	00 00 	addb	%al, (%rax)
     1fd:	00 00 	addb	%al, (%rax)
     1ff:	00 02 	addb	%al, (%rdx)
     201:	00 00 	addb	%al, (%rax)
     203:	00 05 00 00 00 6c 	addb	%al, 1811939328(%rip)
     209:	03 00 	addl	(%rax), %eax
     20b:	00 00 	addb	%al, (%rax)
     20d:	00 00 	addb	%al, (%rax)
     20f:	00 57 01 	addb	%dl, 1(%rdi)
     212:	00 00 	addb	%al, (%rax)
     214:	00 00 	addb	%al, (%rax)
     216:	00 00 	addb	%al, (%rax)
     218:	02 00 	addb	(%rax), %al
     21a:	00 00 	addb	%al, (%rax)
     21c:	04 00 	addb	$0, %al
     21e:	00 00 	addb	%al, (%rax)
     220:	04 00 	addb	$0, %al
     222:	00 00 	addb	%al, (%rax)
     224:	00 00 	addb	%al, (%rax)
     226:	00 00 	addb	%al, (%rax)
     228:	5f 	popq	%rdi
     229:	01 00 	addl	%eax, (%rax)
     22b:	00 00 	addb	%al, (%rax)
     22d:	00 00 	addb	%al, (%rax)
     22f:	00 02 	addb	%al, (%rdx)
     231:	00 00 	addb	%al, (%rax)
     233:	00 04 00 	addb	%al, (%rax,%rax)
     236:	00 00 	addb	%al, (%rax)
     238:	0c 00 	orb	$0, %al
     23a:	00 00 	addb	%al, (%rax)
     23c:	00 00 	addb	%al, (%rax)
     23e:	00 00 	addb	%al, (%rax)
     240:	7d 01 	jge	1 <.rela.text+0x243>
     242:	00 00 	addb	%al, (%rax)
     244:	00 00 	addb	%al, (%rax)
     246:	00 00 	addb	%al, (%rax)
     248:	02 00 	addb	(%rax), %al
     24a:	00 00 	addb	%al, (%rax)
     24c:	04 00 	addb	$0, %al
     24e:	00 00 	addb	%al, (%rax)
     250:	10 00 	adcb	%al, (%rax)
     252:	00 00 	addb	%al, (%rax)
     254:	00 00 	addb	%al, (%rax)
     256:	00 00 	addb	%al, (%rax)
     258:	aa 	stosb	%al, %es:(%rdi)
     259:	01 00 	addl	%eax, (%rax)
     25b:	00 00 	addb	%al, (%rax)
     25d:	00 00 	addb	%al, (%rax)
     25f:	00 02 	addb	%al, (%rdx)
     261:	00 00 	addb	%al, (%rax)
     263:	00 05 00 00 00 94 	addb	%al, -1811939328(%rip)
     269:	03 00 	addl	(%rax), %eax
     26b:	00 00 	addb	%al, (%rax)
     26d:	00 00 	addb	%al, (%rax)
     26f:	00 b4 01 00 00 00 00 	addb	%dh, (%rcx,%rax)
     276:	00 00 	addb	%al, (%rax)
     278:	02 00 	addb	(%rax), %al
     27a:	00 00 	addb	%al, (%rax)
     27c:	04 00 	addb	$0, %al
     27e:	00 00 	addb	%al, (%rax)
     280:	10 00 	adcb	%al, (%rax)
     282:	00 00 	addb	%al, (%rax)
     284:	00 00 	addb	%al, (%rax)
     286:	00 00 	addb	%al, (%rax)
     288:	c5 01 00  <unknown>
     28b:	00 00 	addb	%al, (%rax)
     28d:	00 00 	addb	%al, (%rax)
     28f:	00 02 	addb	%al, (%rdx)
     291:	00 00 	addb	%al, (%rax)
     293:	00 05 00 00 00 9c 	addb	%al, -1677721600(%rip)
     299:	03 00 	addl	(%rax), %eax
     29b:	00 00 	addb	%al, (%rax)
     29d:	00 00 	addb	%al, (%rax)
     29f:	00 cd 	addb	%cl, %ch
     2a1:	01 00 	addl	%eax, (%rax)
     2a3:	00 00 	addb	%al, (%rax)
     2a5:	00 00 	addb	%al, (%rax)
     2a7:	00 02 	addb	%al, (%rdx)
     2a9:	00 00 	addb	%al, (%rax)
     2ab:	00 04 00 	addb	%al, (%rax,%rax)
     2ae:	00 00 	addb	%al, (%rax)
     2b0:	04 00 	addb	$0, %al
     2b2:	00 00 	addb	%al, (%rax)
     2b4:	00 00 	addb	%al, (%rax)
     2b6:	00 00 	addb	%al, (%rax)
     2b8:	d5  <unknown>
     2b9:	01 00 	addl	%eax, (%rax)
     2bb:	00 00 	addb	%al, (%rax)
     2bd:	00 00 	addb	%al, (%rax)
     2bf:	00 02 	addb	%al, (%rdx)
     2c1:	00 00 	addb	%al, (%rax)
     2c3:	00 05 00 00 00 a4 	addb	%al, -1543503872(%rip)
     2c9:	03 00 	addl	(%rax), %eax
     2cb:	00 00 	addb	%al, (%rax)
     2cd:	00 00 	addb	%al, (%rax)
     2cf:	00 dd 	addb	%bl, %ch
     2d1:	01 00 	addl	%eax, (%rax)
     2d3:	00 00 	addb	%al, (%rax)
     2d5:	00 00 	addb	%al, (%rax)
     2d7:	00 02 	addb	%al, (%rdx)
     2d9:	00 00 	addb	%al, (%rax)
     2db:	00 04 00 	addb	%al, (%rax,%rax)
     2de:	00 00 	addb	%al, (%rax)
     2e0:	0c 00 	orb	$0, %al
     2e2:	00 00 	addb	%al, (%rax)
     2e4:	00 00 	addb	%al, (%rax)
     2e6:	00 00 	addb	%al, (%rax)
     2e8:	e9 01 00 00 00 	jmp	1 <.rela.text+0x2ee>
     2ed:	00 00 	addb	%al, (%rax)
     2ef:	00 02 	addb	%al, (%rdx)
     2f1:	00 00 	addb	%al, (%rax)
     2f3:	00 05 00 00 00 8c 	addb	%al, -1946157056(%rip)
     2f9:	03 00 	addl	(%rax), %eax
     2fb:	00 00 	addb	%al, (%rax)
     2fd:	00 00 	addb	%al, (%rax)
     2ff:	00 f5 	addb	%dh, %ch
     301:	01 00 	addl	%eax, (%rax)
     303:	00 00 	addb	%al, (%rax)
     305:	00 00 	addb	%al, (%rax)
     307:	00 02 	addb	%al, (%rdx)
     309:	00 00 	addb	%al, (%rax)
     30b:	00 04 00 	addb	%al, (%rax,%rax)
     30e:	00 00 	addb	%al, (%rax)
     310:	04 00 	addb	$0, %al
     312:	00 00 	addb	%al, (%rax)
     314:	00 00 	addb	%al, (%rax)
     316:	00 00 	addb	%al, (%rax)
     318:	fd 	std
     319:	01 00 	addl	%eax, (%rax)
     31b:	00 00 	addb	%al, (%rax)
     31d:	00 00 	addb	%al, (%rax)
     31f:	00 02 	addb	%al, (%rdx)
     321:	00 00 	addb	%al, (%rax)
     323:	00 04 00 	addb	%al, (%rax,%rax)
     326:	00 00 	addb	%al, (%rax)
     328:	0c 00 	orb	$0, %al
     32a:	00 00 	addb	%al, (%rax)
     32c:	00 00 	addb	%al, (%rax)
     32e:	00 00 	addb	%al, (%rax)
     330:	09 02 	orl	%eax, (%rdx)
     332:	00 00 	addb	%al, (%rax)
     334:	00 00 	addb	%al, (%rax)
     336:	00 00 	addb	%al, (%rax)
     338:	02 00 	addb	(%rax), %al
     33a:	00 00 	addb	%al, (%rax)
     33c:	05 00 00 00 6c 	addl	$1811939328, %eax
     341:	03 00 	addl	(%rax), %eax
     343:	00 00 	addb	%al, (%rax)
     345:	00 00 	addb	%al, (%rax)
     347:	00 29 	addb	%ch, (%rcx)
     349:	02 00 	addb	(%rax), %al
     34b:	00 00 	addb	%al, (%rax)
     34d:	00 00 	addb	%al, (%rax)
     34f:	00 02 	addb	%al, (%rdx)
     351:	00 00 	addb	%al, (%rax)
     353:	00 04 00 	addb	%al, (%rax,%rax)
     356:	00 00 	addb	%al, (%rax)
     358:	04 00 	addb	$0, %al
     35a:	00 00 	addb	%al, (%rax)
     35c:	00 00 	addb	%al, (%rax)
     35e:	00 00 	addb	%al, (%rax)
     360:	31 02 	xorl	%eax, (%rdx)
     362:	00 00 	addb	%al, (%rax)
     364:	00 00 	addb	%al, (%rax)
     366:	00 00 	addb	%al, (%rax)
     368:	02 00 	addb	(%rax), %al
     36a:	00 00 	addb	%al, (%rax)
     36c:	04 00 	addb	$0, %al
     36e:	00 00 	addb	%al, (%rax)
     370:	0c 00 	orb	$0, %al
     372:	00 00 	addb	%al, (%rax)
     374:	00 00 	addb	%al, (%rax)
     376:	00 00 	addb	%al, (%rax)
     378:	4f 02 00 	addb	(%r8), %r8b
     37b:	00 00 	addb	%al, (%rax)
     37d:	00 00 	addb	%al, (%rax)
     37f:	00 02 	addb	%al, (%rdx)
     381:	00 00 	addb	%al, (%rax)
     383:	00 04 00 	addb	%al, (%rax,%rax)
     386:	00 00 	addb	%al, (%rax)
     388:	10 00 	adcb	%al, (%rax)
     38a:	00 00 	addb	%al, (%rax)
     38c:	00 00 	addb	%al, (%rax)
     38e:	00 00 	addb	%al, (%rax)
     390:	64 02 00 	addb	%fs:(%rax), %al
     393:	00 00 	addb	%al, (%rax)
     395:	00 00 	addb	%al, (%rax)
     397:	00 02 	addb	%al, (%rdx)
     399:	00 00 	addb	%al, (%rax)
     39b:	00 05 00 00 00 ac 	addb	%al, -1409286144(%rip)
     3a1:	03 00 	addl	(%rax), %eax
     3a3:	00 00 	addb	%al, (%rax)
     3a5:	00 00 	addb	%al, (%rax)
     3a7:	00 74 02 00 	addb	%dh, (%rdx,%rax)
     3ab:	00 00 	addb	%al, (%rax)
     3ad:	00 00 	addb	%al, (%rax)
     3af:	00 02 	addb	%al, (%rdx)
     3b1:	00 00 	addb	%al, (%rax)
     3b3:	00 05 00 00 00 b4 	addb	%al, -1275068416(%rip)
     3b9:	03 00 	addl	(%rax), %eax
     3bb:	00 00 	addb	%al, (%rax)
     3bd:	00 00 	addb	%al, (%rax)
     3bf:	00 84 02 00 00 00 00 	addb	%al, (%rdx,%rax)
     3c6:	00 00 	addb	%al, (%rax)
     3c8:	02 00 	addb	(%rax), %al
     3ca:	00 00 	addb	%al, (%rax)
     3cc:	05 00 00 00 bc 	addl	$3154116608, %eax
     3d1:	03 00 	addl	(%rax), %eax
     3d3:	00 00 	addb	%al, (%rax)
     3d5:	00 00 	addb	%al, (%rax)
     3d7:	00 90 02 00 00 00 	addb	%dl, 2(%rax)
     3dd:	00 00 	addb	%al, (%rax)
     3df:	00 02 	addb	%al, (%rdx)
     3e1:	00 00 	addb	%al, (%rax)
     3e3:	00 05 00 00 00 c4 	addb	%al, -1006632960(%rip)
     3e9:	03 00 	addl	(%rax), %eax
     3eb:	00 00 	addb	%al, (%rax)
     3ed:	00 00 	addb	%al, (%rax)
     3ef:	00 98 02 00 00 00 	addb	%bl, 2(%rax)
     3f5:	00 00 	addb	%al, (%rax)
     3f7:	00 02 	addb	%al, (%rdx)
     3f9:	00 00 	addb	%al, (%rax)
     3fb:	00 04 00 	addb	%al, (%rax,%rax)
     3fe:	00 00 	addb	%al, (%rax)
     400:	04 00 	addb	$0, %al
     402:	00 00 	addb	%al, (%rax)
     404:	00 00 	addb	%al, (%rax)
     406:	00 00 	addb	%al, (%rax)
     408:	a0 02 00 00 00 00 00 00 02 	movabsb	144115188075855874, %al
     411:	00 00 	addb	%al, (%rax)
     413:	00 05 00 00 00 cc 	addb	%al, -872415232(%rip)
     419:	03 00 	addl	(%rax), %eax
     41b:	00 00 	addb	%al, (%rax)
     41d:	00 00 	addb	%al, (%rax)
     41f:	00 a8 02 00 00 00 	addb	%ch, 2(%rax)
     425:	00 00 	addb	%al, (%rax)
     427:	00 02 	addb	%al, (%rdx)
     429:	00 00 	addb	%al, (%rax)
     42b:	00 04 00 	addb	%al, (%rax,%rax)
     42e:	00 00 	addb	%al, (%rax)
     430:	0c 00 	orb	$0, %al
     432:	00 00 	addb	%al, (%rax)
     434:	00 00 	addb	%al, (%rax)
     436:	00 00 	addb	%al, (%rax)
     438:	ae 	scasb	%es:(%rdi), %al
     439:	02 00 	addb	(%rax), %al
     43b:	00 00 	addb	%al, (%rax)
     43d:	00 00 	addb	%al, (%rax)
     43f:	00 02 	addb	%al, (%rdx)
     441:	00 00 	addb	%al, (%rax)
     443:	00 04 00 	addb	%al, (%rax,%rax)
     446:	00 00 	addb	%al, (%rax)
     448:	10 00 	adcb	%al, (%rax)
     44a:	00 00 	addb	%al, (%rax)
     44c:	00 00 	addb	%al, (%rax)
     44e:	00 00 	addb	%al, (%rax)
     450:	b8 02 00 00 00 	movl	$2, %eax
     455:	00 00 	addb	%al, (%rax)
     457:	00 02 	addb	%al, (%rdx)
     459:	00 00 	addb	%al, (%rax)
     45b:	00 04 00 	addb	%al, (%rax,%rax)
     45e:	00 00 	addb	%al, (%rax)
     460:	14 00 	adcb	$0, %al
     462:	00 00 	addb	%al, (%rax)
     464:	00 00 	addb	%al, (%rax)
     466:	00 00 	addb	%al, (%rax)
     468:	cd 02 	int	$2
     46a:	00 00 	addb	%al, (%rax)
     46c:	00 00 	addb	%al, (%rax)
     46e:	00 00 	addb	%al, (%rax)
     470:	02 00 	addb	(%rax), %al
     472:	00 00 	addb	%al, (%rax)
     474:	05 00 00 00 c4 	addl	$3288334336, %eax
     479:	03 00 	addl	(%rax), %eax
     47b:	00 00 	addb	%al, (%rax)
     47d:	00 00 	addb	%al, (%rax)
     47f:	00 f5 	addb	%dh, %ch
     481:	02 00 	addb	(%rax), %al
     483:	00 00 	addb	%al, (%rax)
     485:	00 00 	addb	%al, (%rax)
     487:	00 02 	addb	%al, (%rdx)
     489:	00 00 	addb	%al, (%rax)
     48b:	00 04 00 	addb	%al, (%rax,%rax)
     48e:	00 00 	addb	%al, (%rax)
     490:	04 00 	addb	$0, %al
     492:	00 00 	addb	%al, (%rax)
     494:	00 00 	addb	%al, (%rax)
     496:	00 00 	addb	%al, (%rax)
     498:	01 03 	addl	%eax, (%rbx)
     49a:	00 00 	addb	%al, (%rax)
     49c:	00 00 	addb	%al, (%rax)
     49e:	00 00 	addb	%al, (%rax)
     4a0:	02 00 	addb	(%rax), %al
     4a2:	00 00 	addb	%al, (%rax)
     4a4:	04 00 	addb	$0, %al
     4a6:	00 00 	addb	%al, (%rax)
     4a8:	0c 00 	orb	$0, %al
     4aa:	00 00 	addb	%al, (%rax)
     4ac:	00 00 	addb	%al, (%rax)
     4ae:	00 00 	addb	%al, (%rax)
     4b0:	07  <unknown>
     4b1:	03 00 	addl	(%rax), %eax
     4b3:	00 00 	addb	%al, (%rax)
     4b5:	00 00 	addb	%al, (%rax)
     4b7:	00 02 	addb	%al, (%rdx)
     4b9:	00 00 	addb	%al, (%rax)
     4bb:	00 04 00 	addb	%al, (%rax,%rax)
     4be:	00 00 	addb	%al, (%rax)
     4c0:	10 00 	adcb	%al, (%rax)
     4c2:	00 00 	addb	%al, (%rax)
     4c4:	00 00 	addb	%al, (%rax)
     4c6:	00 00 	addb	%al, (%rax)
     4c8:	28 03 	subb	%al, (%rbx)
     4ca:	00 00 	addb	%al, (%rax)
     4cc:	00 00 	addb	%al, (%rax)
     4ce:	00 00 	addb	%al, (%rax)
     4d0:	02 00 	addb	(%rax), %al
     4d2:	00 00 	addb	%al, (%rax)
     4d4:	05 00 00 00 d4 	addl	$3556769792, %eax
     4d9:	03 00 	addl	(%rax), %eax
     4db:	00 00 	addb	%al, (%rax)
     4dd:	00 00 	addb	%al, (%rax)
     4df:	00 38 	addb	%bh, (%rax)
     4e1:	03 00 	addl	(%rax), %eax
     4e3:	00 00 	addb	%al, (%rax)
     4e5:	00 00 	addb	%al, (%rax)
     4e7:	00 02 	addb	%al, (%rdx)
     4e9:	00 00 	addb	%al, (%rax)
     4eb:	00 05 00 00 00 dc 	addb	%al, -603979776(%rip)
     4f1:	03 00 	addl	(%rax), %eax
     4f3:	00 00 	addb	%al, (%rax)
     4f5:	00 00 	addb	%al, (%rax)
     4f7:	00 44 03 00 	addb	%al, (%rbx,%rax)
     4fb:	00 00 	addb	%al, (%rax)
     4fd:	00 00 	addb	%al, (%rax)
     4ff:	00 02 	addb	%al, (%rdx)
     501:	00 00 	addb	%al, (%rax)
     503:	00 05 00 00 00 b4 	addb	%al, -1275068416(%rip)
     509:	03 00 	addl	(%rax), %eax
     50b:	00 00 	addb	%al, (%rax)
     50d:	00 00 	addb	%al, (%rax)
     50f:	00 4c 03 00 	addb	%cl, (%rbx,%rax)
     513:	00 00 	addb	%al, (%rax)
     515:	00 00 	addb	%al, (%rax)
     517:	00 02 	addb	%al, (%rdx)
     519:	00 00 	addb	%al, (%rax)
     51b:	00 04 00 	addb	%al, (%rax,%rax)
     51e:	00 00 	addb	%al, (%rax)
     520:	04 00 	addb	$0, %al
     522:	00 00 	addb	%al, (%rax)
     524:	00 00 	addb	%al, (%rax)
     526:	00 00 	addb	%al, (%rax)
     528:	52 	pushq	%rdx
     529:	03 00 	addl	(%rax), %eax
     52b:	00 00 	addb	%al, (%rax)
     52d:	00 00 	addb	%al, (%rax)
     52f:	00 02 	addb	%al, (%rdx)
     531:	00 00 	addb	%al, (%rax)
     533:	00 04 00 	addb	%al, (%rax,%rax)
     536:	00 00 	addb	%al, (%rax)
     538:	10 00 	adcb	%al, (%rax)
     53a:	00 00 	addb	%al, (%rax)
     53c:	00 00 	addb	%al, (%rax)
     53e:	00 00 	addb	%al, (%rax)
     540:	67 03 00 	addl	(%eax), %eax
     543:	00 00 	addb	%al, (%rax)
     545:	00 00 	addb	%al, (%rax)
     547:	00 02 	addb	%al, (%rdx)
     549:	00 00 	addb	%al, (%rax)
     54b:	00 05 00 00 00 e4 	addb	%al, -469762048(%rip)
     551:	03 00 	addl	(%rax), %eax
     553:	00 00 	addb	%al, (%rax)
     555:	00 00 	addb	%al, (%rax)
     557:	00 83 03 00 00 00 	addb	%al, 3(%rbx)
     55d:	00 00 	addb	%al, (%rax)
     55f:	00 02 	addb	%al, (%rdx)
     561:	00 00 	addb	%al, (%rax)
     563:	00 05 00 00 00 ec 	addb	%al, -335544320(%rip)
     569:	03 00 	addl	(%rax), %eax
     56b:	00 00 	addb	%al, (%rax)
     56d:	00 00 	addb	%al, (%rax)
     56f:	00 8f 03 00 00 00 	addb	%cl, 3(%rdi)
     575:	00 00 	addb	%al, (%rax)
     577:	00 02 	addb	%al, (%rdx)
     579:	00 00 	addb	%al, (%rax)
     57b:	00 05 00 00 00 f4 	addb	%al, -201326592(%rip)
     581:	03 00 	addl	(%rax), %eax
     583:	00 00 	addb	%al, (%rax)
     585:	00 00 	addb	%al, (%rax)
     587:	00 97 03 00 00 00 	addb	%dl, 3(%rdi)
     58d:	00 00 	addb	%al, (%rax)
     58f:	00 02 	addb	%al, (%rdx)
     591:	00 00 	addb	%al, (%rax)
     593:	00 04 00 	addb	%al, (%rax,%rax)
     596:	00 00 	addb	%al, (%rax)
     598:	04 00 	addb	$0, %al
     59a:	00 00 	addb	%al, (%rax)
     59c:	00 00 	addb	%al, (%rax)
     59e:	00 00 	addb	%al, (%rax)
     5a0:	9f 	lahf
     5a1:	03 00 	addl	(%rax), %eax
     5a3:	00 00 	addb	%al, (%rax)
     5a5:	00 00 	addb	%al, (%rax)
     5a7:	00 02 	addb	%al, (%rdx)
     5a9:	00 00 	addb	%al, (%rax)
     5ab:	00 05 00 00 00 cc 	addb	%al, -872415232(%rip)
     5b1:	03 00 	addl	(%rax), %eax
     5b3:	00 00 	addb	%al, (%rax)
     5b5:	00 00 	addb	%al, (%rax)
     5b7:	00 a7 03 00 00 00 	addb	%ah, 3(%rdi)
     5bd:	00 00 	addb	%al, (%rax)
     5bf:	00 02 	addb	%al, (%rdx)
     5c1:	00 00 	addb	%al, (%rax)
     5c3:	00 04 00 	addb	%al, (%rax,%rax)
     5c6:	00 00 	addb	%al, (%rax)
     5c8:	0c 00 	orb	$0, %al
     5ca:	00 00 	addb	%al, (%rax)
     5cc:	00 00 	addb	%al, (%rax)
     5ce:	00 00 	addb	%al, (%rax)
     5d0:	ad 	lodsl	(%rsi), %eax
     5d1:	03 00 	addl	(%rax), %eax
     5d3:	00 00 	addb	%al, (%rax)
     5d5:	00 00 	addb	%al, (%rax)
     5d7:	00 02 	addb	%al, (%rdx)
     5d9:	00 00 	addb	%al, (%rax)
     5db:	00 04 00 	addb	%al, (%rax,%rax)
     5de:	00 00 	addb	%al, (%rax)
     5e0:	10 00 	adcb	%al, (%rax)
     5e2:	00 00 	addb	%al, (%rax)
     5e4:	00 00 	addb	%al, (%rax)
     5e6:	00 00 	addb	%al, (%rax)
     5e8:	c2 03 00 	retq	$3
     5eb:	00 00 	addb	%al, (%rax)
     5ed:	00 00 	addb	%al, (%rax)
     5ef:	00 02 	addb	%al, (%rdx)
     5f1:	00 00 	addb	%al, (%rax)
     5f3:	00 05 00 00 00 cc 	addb	%al, -872415232(%rip)
     5f9:	03 00 	addl	(%rax), %eax
     5fb:	00 00 	addb	%al, (%rax)
     5fd:	00 00 	addb	%al, (%rax)
     5ff:	00 de 	addb	%bl, %dh
     601:	03 00 	addl	(%rax), %eax
     603:	00 00 	addb	%al, (%rax)
     605:	00 00 	addb	%al, (%rax)
     607:	00 02 	addb	%al, (%rdx)
     609:	00 00 	addb	%al, (%rax)
     60b:	00 05 00 00 00 fc 	addb	%al, -67108864(%rip)
     611:	03 00 	addl	(%rax), %eax
     613:	00 00 	addb	%al, (%rax)
     615:	00 00 	addb	%al, (%rax)
     617:	00 ee 	addb	%ch, %dh
     619:	03 00 	addl	(%rax), %eax
     61b:	00 00 	addb	%al, (%rax)
     61d:	00 00 	addb	%al, (%rax)
     61f:	00 02 	addb	%al, (%rdx)
     621:	00 00 	addb	%al, (%rax)
     623:	00 04 00 	addb	%al, (%rax,%rax)
     626:	00 00 	addb	%al, (%rax)
     628:	04 00 	addb	$0, %al
     62a:	00 00 	addb	%al, (%rax)
     62c:	00 00 	addb	%al, (%rax)
     62e:	00 00 	addb	%al, (%rax)
     630:	f6 03 00 	testb	$0, (%rbx)
     633:	00 00 	addb	%al, (%rax)
     635:	00 00 	addb	%al, (%rax)
     637:	00 02 	addb	%al, (%rdx)
     639:	00 00 	addb	%al, (%rax)
     63b:	00 05 00 00 00 04 	addb	%al, 67108864(%rip)
     641:	04 00 	addb	$0, %al
     643:	00 00 	addb	%al, (%rax)
     645:	00 00 	addb	%al, (%rax)
     647:	00 fe 	addb	%bh, %dh
     649:	03 00 	addl	(%rax), %eax
     64b:	00 00 	addb	%al, (%rax)
     64d:	00 00 	addb	%al, (%rax)
     64f:	00 02 	addb	%al, (%rdx)
     651:	00 00 	addb	%al, (%rax)
     653:	00 04 00 	addb	%al, (%rax,%rax)
     656:	00 00 	addb	%al, (%rax)
     658:	0c 00 	orb	$0, %al
     65a:	00 00 	addb	%al, (%rax)
     65c:	00 00 	addb	%al, (%rax)
     65e:	00 00 	addb	%al, (%rax)
     660:	04 04 	addb	$4, %al
     662:	00 00 	addb	%al, (%rax)
     664:	00 00 	addb	%al, (%rax)
     666:	00 00 	addb	%al, (%rax)
     668:	02 00 	addb	(%rax), %al
     66a:	00 00 	addb	%al, (%rax)
     66c:	04 00 	addb	$0, %al
     66e:	00 00 	addb	%al, (%rax)
     670:	10 00 	adcb	%al, (%rax)
     672:	00 00 	addb	%al, (%rax)
     674:	00 00 	addb	%al, (%rax)
     676:	00 00 	addb	%al, (%rax)
     678:	0e  <unknown>
     679:	04 00 	addb	$0, %al
     67b:	00 00 	addb	%al, (%rax)
     67d:	00 00 	addb	%al, (%rax)
     67f:	00 02 	addb	%al, (%rdx)
     681:	00 00 	addb	%al, (%rax)
     683:	00 04 00 	addb	%al, (%rax,%rax)
     686:	00 00 	addb	%al, (%rax)
     688:	14 00 	adcb	$0, %al
     68a:	00 00 	addb	%al, (%rax)
     68c:	00 00 	addb	%al, (%rax)
     68e:	00 00 	addb	%al, (%rax)
     690:	23 04 00 	andl	(%rax,%rax), %eax
     693:	00 00 	addb	%al, (%rax)
     695:	00 00 	addb	%al, (%rax)
     697:	00 02 	addb	%al, (%rdx)
     699:	00 00 	addb	%al, (%rax)
     69b:	00 05 00 00 00 0c 	addb	%al, 201326592(%rip)
     6a1:	04 00 	addb	$0, %al
     6a3:	00 00 	addb	%al, (%rax)
     6a5:	00 00 	addb	%al, (%rax)
     6a7:	00 33 	addb	%dh, (%rbx)
     6a9:	04 00 	addb	$0, %al
     6ab:	00 00 	addb	%al, (%rax)
     6ad:	00 00 	addb	%al, (%rax)
     6af:	00 02 	addb	%al, (%rdx)
     6b1:	00 00 	addb	%al, (%rax)
     6b3:	00 05 00 00 00 14 	addb	%al, 335544320(%rip)
     6b9:	04 00 	addb	$0, %al
     6bb:	00 00 	addb	%al, (%rax)
     6bd:	00 00 	addb	%al, (%rax)
     6bf:	00 43 04 	addb	%al, 4(%rbx)
     6c2:	00 00 	addb	%al, (%rax)
     6c4:	00 00 	addb	%al, (%rax)
     6c6:	00 00 	addb	%al, (%rax)
     6c8:	02 00 	addb	(%rax), %al
     6ca:	00 00 	addb	%al, (%rax)
     6cc:	05 00 00 00 1c 	addl	$469762048, %eax
     6d1:	04 00 	addb	$0, %al
     6d3:	00 00 	addb	%al, (%rax)
     6d5:	00 00 	addb	%al, (%rax)
     6d7:	00 57 04 	addb	%dl, 4(%rdi)
     6da:	00 00 	addb	%al, (%rax)
     6dc:	00 00 	addb	%al, (%rax)
     6de:	00 00 	addb	%al, (%rax)
     6e0:	02 00 	addb	(%rax), %al
     6e2:	00 00 	addb	%al, (%rax)
     6e4:	05 00 00 00 6c 	addl	$1811939328, %eax
     6e9:	03 00 	addl	(%rax), %eax
     6eb:	00 00 	addb	%al, (%rax)
     6ed:	00 00 	addb	%al, (%rax)
     6ef:	00 6c 04 00 	addb	%ch, (%rsp,%rax)
     6f3:	00 00 	addb	%al, (%rax)
     6f5:	00 00 	addb	%al, (%rax)
     6f7:	00 04 00 	addb	%al, (%rax,%rax)
     6fa:	00 00 	addb	%al, (%rax)
     6fc:	24 00 	andb	$0, %al
     6fe:	00 00 	addb	%al, (%rax)
     700:	fc 	cld
     701:	ff ff  <unknown>
     703:	ff ff  <unknown>
     705:	ff ff  <unknown>
     707:	ff 78 04  <unknown>
     70a:	00 00 	addb	%al, (%rax)
     70c:	00 00 	addb	%al, (%rax)
     70e:	00 00 	addb	%al, (%rax)
     710:	02 00 	addb	(%rax), %al
     712:	00 00 	addb	%al, (%rax)
     714:	04 00 	addb	$0, %al
     716:	00 00 	addb	%al, (%rax)
     718:	04 00 	addb	$0, %al
     71a:	00 00 	addb	%al, (%rax)
     71c:	00 00 	addb	%al, (%rax)
     71e:	00 00 	addb	%al, (%rax)
     720:	80 04 00 00 	addb	$0, (%rax,%rax)
     724:	00 00 	addb	%al, (%rax)
     726:	00 00 	addb	%al, (%rax)
     728:	02 00 	addb	(%rax), %al
     72a:	00 00 	addb	%al, (%rax)
     72c:	04 00 	addb	$0, %al
     72e:	00 00 	addb	%al, (%rax)
     730:	04 00 	addb	$0, %al
     732:	00 00 	addb	%al, (%rax)
     734:	00 00 	addb	%al, (%rax)
     736:	00 00 	addb	%al, (%rax)
     738:	88 04 00 	movb	%al, (%rax,%rax)
     73b:	00 00 	addb	%al, (%rax)
     73d:	00 00 	addb	%al, (%rax)
     73f:	00 02 	addb	%al, (%rdx)
     741:	00 00 	addb	%al, (%rax)
     743:	00 05 00 00 00 6c 	addb	%al, 1811939328(%rip)
     749:	03 00 	addl	(%rax), %eax
     74b:	00 00 	addb	%al, (%rax)
     74d:	00 00 	addb	%al, (%rax)
     74f:	00 94 04 00 00 00 00 	addb	%dl, (%rsp,%rax)
     756:	00 00 	addb	%al, (%rax)
     758:	02 00 	addb	(%rax), %al
     75a:	00 00 	addb	%al, (%rax)
     75c:	04 00 	addb	$0, %al
     75e:	00 00 	addb	%al, (%rax)
     760:	0c 00 	orb	$0, %al
     762:	00 00 	addb	%al, (%rax)
     764:	00 00 	addb	%al, (%rax)
     766:	00 00 	addb	%al, (%rax)
     768:	9a  <unknown>
     769:	04 00 	addb	$0, %al
     76b:	00 00 	addb	%al, (%rax)
     76d:	00 00 	addb	%al, (%rax)
     76f:	00 02 	addb	%al, (%rdx)
     771:	00 00 	addb	%al, (%rax)
     773:	00 04 00 	addb	%al, (%rax,%rax)
     776:	00 00 	addb	%al, (%rax)
     778:	10 00 	adcb	%al, (%rax)
     77a:	00 00 	addb	%al, (%rax)
     77c:	00 00 	addb	%al, (%rax)
     77e:	00 00 	addb	%al, (%rax)
     780:	af 	scasl	%es:(%rdi), %eax
     781:	04 00 	addb	$0, %al
     783:	00 00 	addb	%al, (%rax)
     785:	00 00 	addb	%al, (%rax)
     787:	00 02 	addb	%al, (%rdx)
     789:	00 00 	addb	%al, (%rax)
     78b:	00 05 00 00 00 8c 	addb	%al, -1946157056(%rip)
     791:	03 00 	addl	(%rax), %eax
     793:	00 00 	addb	%al, (%rax)
     795:	00 00 	addb	%al, (%rax)
     797:	00 bf 04 00 00 00 	addb	%bh, 4(%rdi)
     79d:	00 00 	addb	%al, (%rax)
     79f:	00 02 	addb	%al, (%rdx)
     7a1:	00 00 	addb	%al, (%rax)
     7a3:	00 05 00 00 00 24 	addb	%al, 603979776(%rip)
     7a9:	04 00 	addb	$0, %al
     7ab:	00 00 	addb	%al, (%rax)
     7ad:	00 00 	addb	%al, (%rax)
     7af:	00 cf 	addb	%cl, %bh
     7b1:	04 00 	addb	$0, %al
     7b3:	00 00 	addb	%al, (%rax)
     7b5:	00 00 	addb	%al, (%rax)
     7b7:	00 02 	addb	%al, (%rdx)
     7b9:	00 00 	addb	%al, (%rax)
     7bb:	00 05 00 00 00 2c 	addb	%al, 738197504(%rip)
     7c1:	04 00 	addb	$0, %al
     7c3:	00 00 	addb	%al, (%rax)
     7c5:	00 00 	addb	%al, (%rax)
     7c7:	00 e3 	addb	%ah, %bl
     7c9:	04 00 	addb	$0, %al
     7cb:	00 00 	addb	%al, (%rax)
     7cd:	00 00 	addb	%al, (%rax)
     7cf:	00 02 	addb	%al, (%rdx)
     7d1:	00 00 	addb	%al, (%rax)
     7d3:	00 05 00 00 00 6c 	addb	%al, 1811939328(%rip)
     7d9:	03 00 	addl	(%rax), %eax
     7db:	00 00 	addb	%al, (%rax)
     7dd:	00 00 	addb	%al, (%rax)
     7df:	00 fb 	addb	%bh, %bl
     7e1:	04 00 	addb	$0, %al
     7e3:	00 00 	addb	%al, (%rax)
     7e5:	00 00 	addb	%al, (%rax)
     7e7:	00 02 	addb	%al, (%rdx)
     7e9:	00 00 	addb	%al, (%rax)
     7eb:	00 04 00 	addb	%al, (%rax,%rax)
     7ee:	00 00 	addb	%al, (%rax)
     7f0:	04 00 	addb	$0, %al
     7f2:	00 00 	addb	%al, (%rax)
     7f4:	00 00 	addb	%al, (%rax)
     7f6:	00 00 	addb	%al, (%rax)
     7f8:	14 05 	adcb	$5, %al
     7fa:	00 00 	addb	%al, (%rax)
     7fc:	00 00 	addb	%al, (%rax)
     7fe:	00 00 	addb	%al, (%rax)
     800:	04 00 	addb	$0, %al
     802:	00 00 	addb	%al, (%rax)
     804:	24 00 	andb	$0, %al
     806:	00 00 	addb	%al, (%rax)
     808:	fc 	cld
     809:	ff ff  <unknown>
     80b:	ff ff  <unknown>
     80d:	ff ff  <unknown>
     80f:	ff 20 	jmpq	*(%rax)
     811:	05 00 00 00 00 	addl	$0, %eax
     816:	00 00 	addb	%al, (%rax)
     818:	02 00 	addb	(%rax), %al
     81a:	00 00 	addb	%al, (%rax)
     81c:	04 00 	addb	$0, %al
     81e:	00 00 	addb	%al, (%rax)
     820:	0c 00 	orb	$0, %al
     822:	00 00 	addb	%al, (%rax)
     824:	00 00 	addb	%al, (%rax)
     826:	00 00 	addb	%al, (%rax)
     828:	26 05 00 00 00 00 	addl	$0, %eax
     82e:	00 00 	addb	%al, (%rax)
     830:	02 00 	addb	(%rax), %al
     832:	00 00 	addb	%al, (%rax)
     834:	04 00 	addb	$0, %al
     836:	00 00 	addb	%al, (%rax)
     838:	10 00 	adcb	%al, (%rax)
     83a:	00 00 	addb	%al, (%rax)
     83c:	00 00 	addb	%al, (%rax)
     83e:	00 00 	addb	%al, (%rax)
     840:	30 05 00 00 00 00 	xorb	%al, (%rip)
     846:	00 00 	addb	%al, (%rax)
     848:	02 00 	addb	(%rax), %al
     84a:	00 00 	addb	%al, (%rax)
     84c:	04 00 	addb	$0, %al
     84e:	00 00 	addb	%al, (%rax)
     850:	14 00 	adcb	$0, %al
     852:	00 00 	addb	%al, (%rax)
     854:	00 00 	addb	%al, (%rax)
     856:	00 00 	addb	%al, (%rax)
     858:	63  <unknown>
     859:	05 00 00 00 00 	addl	$0, %eax
     85e:	00 00 	addb	%al, (%rax)
     860:	02 00 	addb	(%rax), %al
     862:	00 00 	addb	%al, (%rax)
     864:	04 00 	addb	$0, %al
     866:	00 00 	addb	%al, (%rax)
     868:	10 00 	adcb	%al, (%rax)
     86a:	00 00 	addb	%al, (%rax)
     86c:	00 00 	addb	%al, (%rax)
     86e:	00 00 	addb	%al, (%rax)
     870:	84 05 00 00 00 00 	testb	%al, (%rip)
     876:	00 00 	addb	%al, (%rax)
     878:	02 00 	addb	(%rax), %al
     87a:	00 00 	addb	%al, (%rax)
     87c:	05 00 00 00 34 	addl	$872415232, %eax
     881:	04 00 	addb	$0, %al
     883:	00 00 	addb	%al, (%rax)
     885:	00 00 	addb	%al, (%rax)
     887:	00 a0 05 00 00 00 	addb	%ah, 5(%rax)
     88d:	00 00 	addb	%al, (%rax)
     88f:	00 02 	addb	%al, (%rdx)
     891:	00 00 	addb	%al, (%rax)
     893:	00 04 00 	addb	%al, (%rax,%rax)
     896:	00 00 	addb	%al, (%rax)
     898:	04 00 	addb	$0, %al
     89a:	00 00 	addb	%al, (%rax)
     89c:	00 00 	addb	%al, (%rax)
     89e:	00 00 	addb	%al, (%rax)
     8a0:	a6 	cmpsb	%es:(%rdi), (%rsi)
     8a1:	05 00 00 00 00 	addl	$0, %eax
     8a6:	00 00 	addb	%al, (%rax)
     8a8:	02 00 	addb	(%rax), %al
     8aa:	00 00 	addb	%al, (%rax)
     8ac:	04 00 	addb	$0, %al
     8ae:	00 00 	addb	%al, (%rax)
     8b0:	10 00 	adcb	%al, (%rax)
     8b2:	00 00 	addb	%al, (%rax)
     8b4:	00 00 	addb	%al, (%rax)
     8b6:	00 00 	addb	%al, (%rax)
     8b8:	b3 05 	movb	$5, %bl
     8ba:	00 00 	addb	%al, (%rax)
     8bc:	00 00 	addb	%al, (%rax)
     8be:	00 00 	addb	%al, (%rax)
     8c0:	02 00 	addb	(%rax), %al
     8c2:	00 00 	addb	%al, (%rax)
     8c4:	05 00 00 00 08 	addl	$134217728, %eax
     8c9:	00 00 	addb	%al, (%rax)
     8cb:	00 00 	addb	%al, (%rax)
     8cd:	00 00 	addb	%al, (%rax)
     8cf:	00 ba 05 00 00 00 	addb	%bh, 5(%rdx)
     8d5:	00 00 	addb	%al, (%rax)
     8d7:	00 2a 	addb	%ch, (%rdx)
     8d9:	00 00 	addb	%al, (%rax)
     8db:	00 25 00 00 00 fc 	addb	%ah, -67108864(%rip)
     8e1:	ff ff  <unknown>
     8e3:	ff ff  <unknown>
     8e5:	ff ff  <unknown>
     8e7:	ff c2 	incl	%edx
     8e9:	05 00 00 00 00 	addl	$0, %eax
     8ee:	00 00 	addb	%al, (%rax)
     8f0:	04 00 	addb	$0, %al
     8f2:	00 00 	addb	%al, (%rax)
     8f4:	26 00 00 	addb	%al, %es:(%rax)
     8f7:	00 fc 	addb	%bh, %ah
     8f9:	ff ff  <unknown>
     8fb:	ff ff  <unknown>
     8fd:	ff ff  <unknown>
     8ff:	ff d2 	callq	*%rdx
     901:	05 00 00 00 00 	addl	$0, %eax
     906:	00 00 	addb	%al, (%rax)
     908:	04 00 	addb	$0, %al
     90a:	00 00 	addb	%al, (%rax)
     90c:	27  <unknown>
     90d:	00 00 	addb	%al, (%rax)
     90f:	00 fc 	addb	%bh, %ah
     911:	ff ff  <unknown>
     913:	ff ff  <unknown>
     915:	ff ff  <unknown>
     917:	ff d9  <unknown>
     919:	05 00 00 00 00 	addl	$0, %eax
     91e:	00 00 	addb	%al, (%rax)
     920:	02 00 	addb	(%rax), %al
     922:	00 00 	addb	%al, (%rax)
     924:	05 00 00 00 24 	addl	$603979776, %eax
     929:	00 00 	addb	%al, (%rax)
     92b:	00 00 	addb	%al, (%rax)
     92d:	00 00 	addb	%al, (%rax)
     92f:	00 e1 	addb	%ah, %cl
     931:	05 00 00 00 00 	addl	$0, %eax
     936:	00 00 	addb	%al, (%rax)
     938:	04 00 	addb	$0, %al
     93a:	00 00 	addb	%al, (%rax)
     93c:	26 00 00 	addb	%al, %es:(%rax)
     93f:	00 fc 	addb	%bh, %ah
     941:	ff ff  <unknown>
     943:	ff ff  <unknown>
     945:	ff ff  <unknown>
     947:	ff ee  <unknown>
     949:	05 00 00 00 00 	addl	$0, %eax
     94e:	00 00 	addb	%al, (%rax)
     950:	04 00 	addb	$0, %al
     952:	00 00 	addb	%al, (%rax)
     954:	27  <unknown>
     955:	00 00 	addb	%al, (%rax)
     957:	00 fc 	addb	%bh, %ah
     959:	ff ff  <unknown>
     95b:	ff ff  <unknown>
     95d:	ff ff  <unknown>
     95f:	ff f5 	pushq	%rbp
     961:	05 00 00 00 00 	addl	$0, %eax
     966:	00 00 	addb	%al, (%rax)
     968:	02 00 	addb	(%rax), %al
     96a:	00 00 	addb	%al, (%rax)
     96c:	05 00 00 00 59 	addl	$1493172224, %eax
     971:	00 00 	addb	%al, (%rax)
     973:	00 00 	addb	%al, (%rax)
     975:	00 00 	addb	%al, (%rax)
     977:	00 fd 	addb	%bh, %ch
     979:	05 00 00 00 00 	addl	$0, %eax
     97e:	00 00 	addb	%al, (%rax)
     980:	04 00 	addb	$0, %al
     982:	00 00 	addb	%al, (%rax)
     984:	26 00 00 	addb	%al, %es:(%rax)
     987:	00 fc 	addb	%bh, %ah
     989:	ff ff  <unknown>
     98b:	ff ff  <unknown>
     98d:	ff ff  <unknown>
     98f:	ff 07 	incl	(%rdi)
     991:	06  <unknown>
     992:	00 00 	addb	%al, (%rax)
     994:	00 00 	addb	%al, (%rax)
     996:	00 00 	addb	%al, (%rax)
     998:	2a 00 	subb	(%rax), %al
     99a:	00 00 	addb	%al, (%rax)
     99c:	28 00 	subb	%al, (%rax)
     99e:	00 00 	addb	%al, (%rax)
     9a0:	fc 	cld
     9a1:	ff ff  <unknown>
     9a3:	ff ff  <unknown>
     9a5:	ff ff  <unknown>
     9a7:	ff 12 	callq	*(%rdx)
     9a9:	06  <unknown>
     9aa:	00 00 	addb	%al, (%rax)
     9ac:	00 00 	addb	%al, (%rax)
     9ae:	00 00 	addb	%al, (%rax)
     9b0:	04 00 	addb	$0, %al
     9b2:	00 00 	addb	%al, (%rax)
     9b4:	29 00 	subl	%eax, (%rax)
     9b6:	00 00 	addb	%al, (%rax)
     9b8:	fc 	cld
     9b9:	ff ff  <unknown>
     9bb:	ff ff  <unknown>
     9bd:	ff ff  <unknown>
     9bf:	ff 1c 06 	lcalll	*(%rsi,%rax)
     9c2:	00 00 	addb	%al, (%rax)
     9c4:	00 00 	addb	%al, (%rax)
     9c6:	00 00 	addb	%al, (%rax)
     9c8:	04 00 	addb	$0, %al
     9ca:	00 00 	addb	%al, (%rax)
     9cc:	2a 00 	subb	(%rax), %al
     9ce:	00 00 	addb	%al, (%rax)
     9d0:	fc 	cld
     9d1:	ff ff  <unknown>
     9d3:	ff ff  <unknown>
     9d5:	ff ff  <unknown>
     9d7:	ff 3f  <unknown>
     9d9:	06  <unknown>
     9da:	00 00 	addb	%al, (%rax)
     9dc:	00 00 	addb	%al, (%rax)
     9de:	00 00 	addb	%al, (%rax)
     9e0:	02 00 	addb	(%rax), %al
     9e2:	00 00 	addb	%al, (%rax)
     9e4:	05 00 00 00 3c 	addl	$1006632960, %eax
     9e9:	04 00 	addb	$0, %al
     9eb:	00 00 	addb	%al, (%rax)
     9ed:	00 00 	addb	%al, (%rax)
     9ef:	00 4b 06 	addb	%cl, 6(%rbx)
     9f2:	00 00 	addb	%al, (%rax)
     9f4:	00 00 	addb	%al, (%rax)
     9f6:	00 00 	addb	%al, (%rax)
     9f8:	02 00 	addb	(%rax), %al
     9fa:	00 00 	addb	%al, (%rax)
     9fc:	03 00 	addl	(%rax), %eax
     9fe:	00 00 	addb	%al, (%rax)
     a00:	fc 	cld
     a01:	ff ff  <unknown>
     a03:	ff ff  <unknown>
     a05:	ff ff  <unknown>
     a07:	ff 58 06 	lcalll	*6(%rax)
     a0a:	00 00 	addb	%al, (%rax)
     a0c:	00 00 	addb	%al, (%rax)
     a0e:	00 00 	addb	%al, (%rax)
     a10:	02 00 	addb	(%rax), %al
     a12:	00 00 	addb	%al, (%rax)
     a14:	05 00 00 00 a4 	addl	$2751463424, %eax
     a19:	00 00 	addb	%al, (%rax)
     a1b:	00 00 	addb	%al, (%rax)
     a1d:	00 00 	addb	%al, (%rax)
     a1f:	00 5f 06 	addb	%bl, 6(%rdi)
     a22:	00 00 	addb	%al, (%rax)
     a24:	00 00 	addb	%al, (%rax)
     a26:	00 00 	addb	%al, (%rax)
     a28:	2a 00 	subb	(%rax), %al
     a2a:	00 00 	addb	%al, (%rax)
     a2c:	2c 00 	subb	$0, %al
     a2e:	00 00 	addb	%al, (%rax)
     a30:	fc 	cld
     a31:	ff ff  <unknown>
     a33:	ff ff  <unknown>
     a35:	ff ff  <unknown>
     a37:	ff 67 06 	jmpq	*6(%rdi)
     a3a:	00 00 	addb	%al, (%rax)
     a3c:	00 00 	addb	%al, (%rax)
     a3e:	00 00 	addb	%al, (%rax)
     a40:	04 00 	addb	$0, %al
     a42:	00 00 	addb	%al, (%rax)
     a44:	26 00 00 	addb	%al, %es:(%rax)
     a47:	00 fc 	addb	%bh, %ah
     a49:	ff ff  <unknown>
     a4b:	ff ff  <unknown>
     a4d:	ff ff  <unknown>
     a4f:	ff 74 06 00 	pushq	(%rsi,%rax)
     a53:	00 00 	addb	%al, (%rax)
     a55:	00 00 	addb	%al, (%rax)
     a57:	00 04 00 	addb	%al, (%rax,%rax)
     a5a:	00 00 	addb	%al, (%rax)
     a5c:	1f  <unknown>
     a5d:	00 00 	addb	%al, (%rax)
     a5f:	00 fc 	addb	%bh, %ah
     a61:	ff ff  <unknown>
     a63:	ff ff  <unknown>
     a65:	ff ff  <unknown>
     a67:	ff 7e 06  <unknown>
     a6a:	00 00 	addb	%al, (%rax)
     a6c:	00 00 	addb	%al, (%rax)
     a6e:	00 00 	addb	%al, (%rax)
     a70:	04 00 	addb	$0, %al
     a72:	00 00 	addb	%al, (%rax)
     a74:	2d 00 00 00 fc 	subl	$4227858432, %eax
     a79:	ff ff  <unknown>
     a7b:	ff ff  <unknown>
     a7d:	ff ff  <unknown>
     a7f:	ff 98 06 00 00 00 	lcalll	*6(%rax)
     a85:	00 00 	addb	%al, (%rax)
     a87:	00 02 	addb	%al, (%rdx)
     a89:	00 00 	addb	%al, (%rax)
     a8b:	00 05 00 00 00 3c 	addb	%al, 1006632960(%rip)
     a91:	04 00 	addb	$0, %al
     a93:	00 00 	addb	%al, (%rax)
     a95:	00 00 	addb	%al, (%rax)
     a97:	00 b6 06 00 00 00 	addb	%dh, 6(%rsi)
     a9d:	00 00 	addb	%al, (%rax)
     a9f:	00 04 00 	addb	%al, (%rax,%rax)
     aa2:	00 00 	addb	%al, (%rax)
     aa4:	2e 00 00 	addb	%al, %cs:(%rax)
     aa7:	00 fc 	addb	%bh, %ah
     aa9:	ff ff  <unknown>
     aab:	ff ff  <unknown>
     aad:	ff ff  <unknown>
     aaf:	ff bf 06 00 00 00  <unknown>
     ab5:	00 00 	addb	%al, (%rax)
     ab7:	00 02 	addb	%al, (%rdx)
     ab9:	00 00 	addb	%al, (%rax)
     abb:	00 05 00 00 00 bf 	addb	%al, -1090519040(%rip)
     ac1:	00 00 	addb	%al, (%rax)
     ac3:	00 00 	addb	%al, (%rax)
     ac5:	00 00 	addb	%al, (%rax)
     ac7:	00 c6 	addb	%al, %dh
     ac9:	06  <unknown>
     aca:	00 00 	addb	%al, (%rax)
     acc:	00 00 	addb	%al, (%rax)
     ace:	00 00 	addb	%al, (%rax)
     ad0:	2a 00 	subb	(%rax), %al
     ad2:	00 00 	addb	%al, (%rax)
     ad4:	2c 00 	subb	$0, %al
     ad6:	00 00 	addb	%al, (%rax)
     ad8:	fc 	cld
     ad9:	ff ff  <unknown>
     adb:	ff ff  <unknown>
     add:	ff ff  <unknown>
     adf:	ff ce 	decl	%esi
     ae1:	06  <unknown>
     ae2:	00 00 	addb	%al, (%rax)
     ae4:	00 00 	addb	%al, (%rax)
     ae6:	00 00 	addb	%al, (%rax)
     ae8:	04 00 	addb	$0, %al
     aea:	00 00 	addb	%al, (%rax)
     aec:	26 00 00 	addb	%al, %es:(%rax)
     aef:	00 fc 	addb	%bh, %ah
     af1:	ff ff  <unknown>
     af3:	ff ff  <unknown>
     af5:	ff ff  <unknown>
     af7:	ff db  <unknown>
     af9:	06  <unknown>
     afa:	00 00 	addb	%al, (%rax)
     afc:	00 00 	addb	%al, (%rax)
     afe:	00 00 	addb	%al, (%rax)
     b00:	04 00 	addb	$0, %al
     b02:	00 00 	addb	%al, (%rax)
     b04:	1f  <unknown>
     b05:	00 00 	addb	%al, (%rax)
     b07:	00 fc 	addb	%bh, %ah
     b09:	ff ff  <unknown>
     b0b:	ff ff  <unknown>
     b0d:	ff ff  <unknown>
     b0f:	ff e5 	jmpq	*%rbp
     b11:	06  <unknown>
     b12:	00 00 	addb	%al, (%rax)
     b14:	00 00 	addb	%al, (%rax)
     b16:	00 00 	addb	%al, (%rax)
     b18:	04 00 	addb	$0, %al
     b1a:	00 00 	addb	%al, (%rax)
     b1c:	2d 00 00 00 fc 	subl	$4227858432, %eax
     b21:	ff ff  <unknown>
     b23:	ff ff  <unknown>
     b25:	ff ff  <unknown>
     b27:	ff fa  <unknown>
     b29:	06  <unknown>
     b2a:	00 00 	addb	%al, (%rax)
     b2c:	00 00 	addb	%al, (%rax)
     b2e:	00 00 	addb	%al, (%rax)
     b30:	02 00 	addb	(%rax), %al
     b32:	00 00 	addb	%al, (%rax)
     b34:	05 00 00 00 3c 	addl	$1006632960, %eax
     b39:	04 00 	addb	$0, %al
     b3b:	00 00 	addb	%al, (%rax)
     b3d:	00 00 	addb	%al, (%rax)
     b3f:	00 18 	addb	%bl, (%rax)
     b41:	07  <unknown>
     b42:	00 00 	addb	%al, (%rax)
     b44:	00 00 	addb	%al, (%rax)
     b46:	00 00 	addb	%al, (%rax)
     b48:	04 00 	addb	$0, %al
     b4a:	00 00 	addb	%al, (%rax)
     b4c:	2e 00 00 	addb	%al, %cs:(%rax)
     b4f:	00 fc 	addb	%bh, %ah
     b51:	ff ff  <unknown>
     b53:	ff ff  <unknown>
     b55:	ff ff  <unknown>
     b57:	ff 20 	jmpq	*(%rax)
     b59:	07  <unknown>
     b5a:	00 00 	addb	%al, (%rax)
     b5c:	00 00 	addb	%al, (%rax)
     b5e:	00 00 	addb	%al, (%rax)
     b60:	02 00 	addb	(%rax), %al
     b62:	00 00 	addb	%al, (%rax)
     b64:	03 00 	addl	(%rax), %eax
     b66:	00 00 	addb	%al, (%rax)
     b68:	fc 	cld
     b69:	ff ff  <unknown>
     b6b:	ff ff  <unknown>
     b6d:	ff ff  <unknown>
     b6f:	ff 2e 	ljmpl	*(%rsi)
     b71:	07  <unknown>
     b72:	00 00 	addb	%al, (%rax)
     b74:	00 00 	addb	%al, (%rax)
     b76:	00 00 	addb	%al, (%rax)
     b78:	02 00 	addb	(%rax), %al
     b7a:	00 00 	addb	%al, (%rax)
     b7c:	05 00 00 00 da 	addl	$3657433088, %eax
     b81:	00 00 	addb	%al, (%rax)
     b83:	00 00 	addb	%al, (%rax)
     b85:	00 00 	addb	%al, (%rax)
     b87:	00 35 07 00 00 00 	addb	%dh, 7(%rip)
     b8d:	00 00 	addb	%al, (%rax)
     b8f:	00 2a 	addb	%ch, (%rdx)
     b91:	00 00 	addb	%al, (%rax)
     b93:	00 2c 00 	addb	%ch, (%rax,%rax)
     b96:	00 00 	addb	%al, (%rax)
     b98:	fc 	cld
     b99:	ff ff  <unknown>
     b9b:	ff ff  <unknown>
     b9d:	ff ff  <unknown>
     b9f:	ff 3d 07 00 00 00  <unknown>
     ba5:	00 00 	addb	%al, (%rax)
     ba7:	00 04 00 	addb	%al, (%rax,%rax)
     baa:	00 00 	addb	%al, (%rax)
     bac:	26 00 00 	addb	%al, %es:(%rax)
     baf:	00 fc 	addb	%bh, %ah
     bb1:	ff ff  <unknown>
     bb3:	ff ff  <unknown>
     bb5:	ff ff  <unknown>
     bb7:	ff 47 07 	incl	7(%rdi)
     bba:	00 00 	addb	%al, (%rax)
     bbc:	00 00 	addb	%al, (%rax)
     bbe:	00 00 	addb	%al, (%rax)
     bc0:	2a 00 	subb	(%rax), %al
     bc2:	00 00 	addb	%al, (%rax)
     bc4:	28 00 	subb	%al, (%rax)
     bc6:	00 00 	addb	%al, (%rax)
     bc8:	fc 	cld
     bc9:	ff ff  <unknown>
     bcb:	ff ff  <unknown>
     bcd:	ff ff  <unknown>
     bcf:	ff 52 07 	callq	*7(%rdx)
     bd2:	00 00 	addb	%al, (%rax)
     bd4:	00 00 	addb	%al, (%rax)
     bd6:	00 00 	addb	%al, (%rax)
     bd8:	04 00 	addb	$0, %al
     bda:	00 00 	addb	%al, (%rax)
     bdc:	29 00 	subl	%eax, (%rax)
     bde:	00 00 	addb	%al, (%rax)
     be0:	fc 	cld
     be1:	ff ff  <unknown>
     be3:	ff ff  <unknown>
     be5:	ff ff  <unknown>
     be7:	ff 60 07 	jmpq	*7(%rax)
     bea:	00 00 	addb	%al, (%rax)
     bec:	00 00 	addb	%al, (%rax)
     bee:	00 00 	addb	%al, (%rax)
     bf0:	02 00 	addb	(%rax), %al
     bf2:	00 00 	addb	%al, (%rax)
     bf4:	05 00 00 00 e3 	addl	$3808428032, %eax
     bf9:	00 00 	addb	%al, (%rax)
     bfb:	00 00 	addb	%al, (%rax)
     bfd:	00 00 	addb	%al, (%rax)
     bff:	00 67 07 	addb	%ah, 7(%rdi)
     c02:	00 00 	addb	%al, (%rax)
     c04:	00 00 	addb	%al, (%rax)
     c06:	00 00 	addb	%al, (%rax)
     c08:	2a 00 	subb	(%rax), %al
     c0a:	00 00 	addb	%al, (%rax)
     c0c:	2c 00 	subb	$0, %al
     c0e:	00 00 	addb	%al, (%rax)
     c10:	fc 	cld
     c11:	ff ff  <unknown>
     c13:	ff ff  <unknown>
     c15:	ff ff  <unknown>
     c17:	ff 6f 07 	ljmpl	*7(%rdi)
     c1a:	00 00 	addb	%al, (%rax)
     c1c:	00 00 	addb	%al, (%rax)
     c1e:	00 00 	addb	%al, (%rax)
     c20:	04 00 	addb	$0, %al
     c22:	00 00 	addb	%al, (%rax)
     c24:	26 00 00 	addb	%al, %es:(%rax)
     c27:	00 fc 	addb	%bh, %ah
     c29:	ff ff  <unknown>
     c2b:	ff ff  <unknown>
     c2d:	ff ff  <unknown>
     c2f:	ff 79 07  <unknown>
     c32:	00 00 	addb	%al, (%rax)
     c34:	00 00 	addb	%al, (%rax)
     c36:	00 00 	addb	%al, (%rax)
     c38:	2a 00 	subb	(%rax), %al
     c3a:	00 00 	addb	%al, (%rax)
     c3c:	28 00 	subb	%al, (%rax)
     c3e:	00 00 	addb	%al, (%rax)
     c40:	fc 	cld
     c41:	ff ff  <unknown>
     c43:	ff ff  <unknown>
     c45:	ff ff  <unknown>
     c47:	ff 84 07 00 00 00 00 	incl	(%rdi,%rax)
     c4e:	00 00 	addb	%al, (%rax)
     c50:	04 00 	addb	$0, %al
     c52:	00 00 	addb	%al, (%rax)
     c54:	29 00 	subl	%eax, (%rax)
     c56:	00 00 	addb	%al, (%rax)
     c58:	fc 	cld
     c59:	ff ff  <unknown>
     c5b:	ff ff  <unknown>
     c5d:	ff ff  <unknown>
     c5f:	ff b5 07 00 00 00 	pushq	7(%rbp)
     c65:	00 00 	addb	%al, (%rax)
     c67:	00 04 00 	addb	%al, (%rax,%rax)
     c6a:	00 00 	addb	%al, (%rax)
     c6c:	1e  <unknown>
     c6d:	00 00 	addb	%al, (%rax)
     c6f:	00 fc 	addb	%bh, %ah
     c71:	ff ff  <unknown>
     c73:	ff ff  <unknown>
     c75:	ff ff  <unknown>
     c77:	ff be 07 00 00 00  <unknown>
     c7d:	00 00 	addb	%al, (%rax)
     c7f:	00 2a 	addb	%ch, (%rdx)
     c81:	00 00 	addb	%al, (%rax)
     c83:	00 2c 00 	addb	%ch, (%rax,%rax)
     c86:	00 00 	addb	%al, (%rax)
     c88:	fc 	cld
     c89:	ff ff  <unknown>
     c8b:	ff ff  <unknown>
     c8d:	ff ff  <unknown>
     c8f:	ff c6 	incl	%esi
     c91:	07  <unknown>
     c92:	00 00 	addb	%al, (%rax)
     c94:	00 00 	addb	%al, (%rax)
     c96:	00 00 	addb	%al, (%rax)
     c98:	04 00 	addb	$0, %al
     c9a:	00 00 	addb	%al, (%rax)
     c9c:	30 00 	xorb	%al, (%rax)
     c9e:	00 00 	addb	%al, (%rax)
     ca0:	fc 	cld
     ca1:	ff ff  <unknown>
     ca3:	ff ff  <unknown>
     ca5:	ff ff  <unknown>
     ca7:	ff cd 	decl	%ebp
     ca9:	07  <unknown>
     caa:	00 00 	addb	%al, (%rax)
     cac:	00 00 	addb	%al, (%rax)
     cae:	00 00 	addb	%al, (%rax)
     cb0:	02 00 	addb	(%rax), %al
     cb2:	00 00 	addb	%al, (%rax)
     cb4:	05 00 00 00 f4 	addl	$4093640704, %eax
     cb9:	00 00 	addb	%al, (%rax)
     cbb:	00 00 	addb	%al, (%rax)
     cbd:	00 00 	addb	%al, (%rax)
     cbf:	00 d5 	addb	%dl, %ch
     cc1:	07  <unknown>
     cc2:	00 00 	addb	%al, (%rax)
     cc4:	00 00 	addb	%al, (%rax)
     cc6:	00 00 	addb	%al, (%rax)
     cc8:	04 00 	addb	$0, %al
     cca:	00 00 	addb	%al, (%rax)
     ccc:	26 00 00 	addb	%al, %es:(%rax)
     ccf:	00 fc 	addb	%bh, %ah
     cd1:	ff ff  <unknown>
     cd3:	ff ff  <unknown>
     cd5:	ff ff  <unknown>
     cd7:	ff e2 	jmpq	*%rdx
     cd9:	07  <unknown>
     cda:	00 00 	addb	%al, (%rax)
     cdc:	00 00 	addb	%al, (%rax)
     cde:	00 00 	addb	%al, (%rax)
     ce0:	02 00 	addb	(%rax), %al
     ce2:	00 00 	addb	%al, (%rax)
     ce4:	05 00 00 00 0f 	addl	$251658240, %eax
     ce9:	01 00 	addl	%eax, (%rax)
     ceb:	00 00 	addb	%al, (%rax)
     ced:	00 00 	addb	%al, (%rax)
     cef:	00 e9 	addb	%ch, %cl
     cf1:	07  <unknown>
     cf2:	00 00 	addb	%al, (%rax)
     cf4:	00 00 	addb	%al, (%rax)
     cf6:	00 00 	addb	%al, (%rax)
     cf8:	2a 00 	subb	(%rax), %al
     cfa:	00 00 	addb	%al, (%rax)
     cfc:	2c 00 	subb	$0, %al
     cfe:	00 00 	addb	%al, (%rax)
     d00:	fc 	cld
     d01:	ff ff  <unknown>
     d03:	ff ff  <unknown>
     d05:	ff ff  <unknown>
     d07:	ff f1 	pushq	%rcx
     d09:	07  <unknown>
     d0a:	00 00 	addb	%al, (%rax)
     d0c:	00 00 	addb	%al, (%rax)
     d0e:	00 00 	addb	%al, (%rax)
     d10:	04 00 	addb	$0, %al
     d12:	00 00 	addb	%al, (%rax)
     d14:	26 00 00 	addb	%al, %es:(%rax)
     d17:	00 fc 	addb	%bh, %ah
     d19:	ff ff  <unknown>
     d1b:	ff ff  <unknown>
     d1d:	ff ff  <unknown>
     d1f:	ff fd  <unknown>
     d21:	07  <unknown>
     d22:	00 00 	addb	%al, (%rax)
     d24:	00 00 	addb	%al, (%rax)
     d26:	00 00 	addb	%al, (%rax)
     d28:	04 00 	addb	$0, %al
     d2a:	00 00 	addb	%al, (%rax)
     d2c:	1f  <unknown>
     d2d:	00 00 	addb	%al, (%rax)
     d2f:	00 fc 	addb	%bh, %ah
     d31:	ff ff  <unknown>
     d33:	ff ff  <unknown>
     d35:	ff ff  <unknown>
     d37:	ff 06 	incl	(%rsi)
     d39:	08 00 	orb	%al, (%rax)
     d3b:	00 00 	addb	%al, (%rax)
     d3d:	00 00 	addb	%al, (%rax)
     d3f:	00 2a 	addb	%ch, (%rdx)
     d41:	00 00 	addb	%al, (%rax)
     d43:	00 2c 00 	addb	%ch, (%rax,%rax)
     d46:	00 00 	addb	%al, (%rax)
     d48:	fc 	cld
     d49:	ff ff  <unknown>
     d4b:	ff ff  <unknown>
     d4d:	ff ff  <unknown>
     d4f:	ff 0e 	decl	(%rsi)
     d51:	08 00 	orb	%al, (%rax)
     d53:	00 00 	addb	%al, (%rax)
     d55:	00 00 	addb	%al, (%rax)
     d57:	00 04 00 	addb	%al, (%rax,%rax)
     d5a:	00 00 	addb	%al, (%rax)
     d5c:	2d 00 00 00 fc 	subl	$4227858432, %eax
     d61:	ff ff  <unknown>
     d63:	ff ff  <unknown>
     d65:	ff ff  <unknown>
     d67:	ff 1e 	lcalll	*(%rsi)
     d69:	08 00 	orb	%al, (%rax)
     d6b:	00 00 	addb	%al, (%rax)
     d6d:	00 00 	addb	%al, (%rax)
     d6f:	00 04 00 	addb	%al, (%rax,%rax)
     d72:	00 00 	addb	%al, (%rax)
     d74:	27  <unknown>
     d75:	00 00 	addb	%al, (%rax)
     d77:	00 fc 	addb	%bh, %ah
     d79:	ff ff  <unknown>
     d7b:	ff ff  <unknown>
     d7d:	ff ff  <unknown>
     d7f:	ff 24 08 	jmpq	*(%rax,%rcx)
     d82:	00 00 	addb	%al, (%rax)
     d84:	00 00 	addb	%al, (%rax)
     d86:	00 00 	addb	%al, (%rax)
     d88:	02 00 	addb	(%rax), %al
     d8a:	00 00 	addb	%al, (%rax)
     d8c:	04 00 	addb	$0, %al
     d8e:	00 00 	addb	%al, (%rax)
     d90:	14 00 	adcb	$0, %al
     d92:	00 00 	addb	%al, (%rax)
     d94:	00 00 	addb	%al, (%rax)
     d96:	00 00 	addb	%al, (%rax)
     d98:	30 08 	xorb	%cl, (%rax)
     d9a:	00 00 	addb	%al, (%rax)
     d9c:	00 00 	addb	%al, (%rax)
     d9e:	00 00 	addb	%al, (%rax)
     da0:	02 00 	addb	(%rax), %al
     da2:	00 00 	addb	%al, (%rax)
     da4:	05 00 00 00 19 	addl	$419430400, %eax
     da9:	01 00 	addl	%eax, (%rax)
     dab:	00 00 	addb	%al, (%rax)
     dad:	00 00 	addb	%al, (%rax)
     daf:	00 37 	addb	%dh, (%rdi)
     db1:	08 00 	orb	%al, (%rax)
     db3:	00 00 	addb	%al, (%rax)
     db5:	00 00 	addb	%al, (%rax)
     db7:	00 2a 	addb	%ch, (%rdx)
     db9:	00 00 	addb	%al, (%rax)
     dbb:	00 2c 00 	addb	%ch, (%rax,%rax)
     dbe:	00 00 	addb	%al, (%rax)
     dc0:	fc 	cld
     dc1:	ff ff  <unknown>
     dc3:	ff ff  <unknown>
     dc5:	ff ff  <unknown>
     dc7:	ff 3f  <unknown>
     dc9:	08 00 	orb	%al, (%rax)
     dcb:	00 00 	addb	%al, (%rax)
     dcd:	00 00 	addb	%al, (%rax)
     dcf:	00 04 00 	addb	%al, (%rax,%rax)
     dd2:	00 00 	addb	%al, (%rax)
     dd4:	26 00 00 	addb	%al, %es:(%rax)
     dd7:	00 fc 	addb	%bh, %ah
     dd9:	ff ff  <unknown>
     ddb:	ff ff  <unknown>
     ddd:	ff ff  <unknown>
     ddf:	ff 49 08 	decl	8(%rcx)
     de2:	00 00 	addb	%al, (%rax)
     de4:	00 00 	addb	%al, (%rax)
     de6:	00 00 	addb	%al, (%rax)
     de8:	2a 00 	subb	(%rax), %al
     dea:	00 00 	addb	%al, (%rax)
     dec:	28 00 	subb	%al, (%rax)
     dee:	00 00 	addb	%al, (%rax)
     df0:	fc 	cld
     df1:	ff ff  <unknown>
     df3:	ff ff  <unknown>
     df5:	ff ff  <unknown>
     df7:	ff 54 08 00 	callq	*(%rax,%rcx)
     dfb:	00 00 	addb	%al, (%rax)
     dfd:	00 00 	addb	%al, (%rax)
     dff:	00 04 00 	addb	%al, (%rax,%rax)
     e02:	00 00 	addb	%al, (%rax)
     e04:	29 00 	subl	%eax, (%rax)
     e06:	00 00 	addb	%al, (%rax)
     e08:	fc 	cld
     e09:	ff ff  <unknown>
     e0b:	ff ff  <unknown>
     e0d:	ff ff  <unknown>
     e0f:	ff 65 08 	jmpq	*8(%rbp)
     e12:	00 00 	addb	%al, (%rax)
     e14:	00 00 	addb	%al, (%rax)
     e16:	00 00 	addb	%al, (%rax)
     e18:	02 00 	addb	(%rax), %al
     e1a:	00 00 	addb	%al, (%rax)
     e1c:	05 00 00 00 29 	addl	$687865856, %eax
     e21:	01 00 	addl	%eax, (%rax)
     e23:	00 00 	addb	%al, (%rax)
     e25:	00 00 	addb	%al, (%rax)
     e27:	00 6c 08 00 	addb	%ch, (%rax,%rcx)
     e2b:	00 00 	addb	%al, (%rax)
     e2d:	00 00 	addb	%al, (%rax)
     e2f:	00 2a 	addb	%ch, (%rdx)
     e31:	00 00 	addb	%al, (%rax)
     e33:	00 2c 00 	addb	%ch, (%rax,%rax)
     e36:	00 00 	addb	%al, (%rax)
     e38:	fc 	cld
     e39:	ff ff  <unknown>
     e3b:	ff ff  <unknown>
     e3d:	ff ff  <unknown>
     e3f:	ff 74 08 00 	pushq	(%rax,%rcx)
     e43:	00 00 	addb	%al, (%rax)
     e45:	00 00 	addb	%al, (%rax)
     e47:	00 04 00 	addb	%al, (%rax,%rax)
     e4a:	00 00 	addb	%al, (%rax)
     e4c:	26 00 00 	addb	%al, %es:(%rax)
     e4f:	00 fc 	addb	%bh, %ah
     e51:	ff ff  <unknown>
     e53:	ff ff  <unknown>
     e55:	ff ff  <unknown>
     e57:	ff 7e 08  <unknown>
     e5a:	00 00 	addb	%al, (%rax)
     e5c:	00 00 	addb	%al, (%rax)
     e5e:	00 00 	addb	%al, (%rax)
     e60:	2a 00 	subb	(%rax), %al
     e62:	00 00 	addb	%al, (%rax)
     e64:	28 00 	subb	%al, (%rax)
     e66:	00 00 	addb	%al, (%rax)
     e68:	fc 	cld
     e69:	ff ff  <unknown>
     e6b:	ff ff  <unknown>
     e6d:	ff ff  <unknown>
     e6f:	ff 89 08 00 00 00 	decl	8(%rcx)
     e75:	00 00 	addb	%al, (%rax)
     e77:	00 04 00 	addb	%al, (%rax,%rax)
     e7a:	00 00 	addb	%al, (%rax)
     e7c:	29 00 	subl	%eax, (%rax)
     e7e:	00 00 	addb	%al, (%rax)
     e80:	fc 	cld
     e81:	ff ff  <unknown>
     e83:	ff ff  <unknown>
     e85:	ff ff  <unknown>
     e87:	ff 9a 08 00 00 00 	lcalll	*8(%rdx)
     e8d:	00 00 	addb	%al, (%rax)
     e8f:	00 02 	addb	%al, (%rdx)
     e91:	00 00 	addb	%al, (%rax)
     e93:	00 05 00 00 00 35 	addb	%al, 889192448(%rip)
     e99:	01 00 	addl	%eax, (%rax)
     e9b:	00 00 	addb	%al, (%rax)
     e9d:	00 00 	addb	%al, (%rax)
     e9f:	00 a1 08 00 00 00 	addb	%ah, 8(%rcx)
     ea5:	00 00 	addb	%al, (%rax)
     ea7:	00 2a 	addb	%ch, (%rdx)
     ea9:	00 00 	addb	%al, (%rax)
     eab:	00 2c 00 	addb	%ch, (%rax,%rax)
     eae:	00 00 	addb	%al, (%rax)
     eb0:	fc 	cld
     eb1:	ff ff  <unknown>
     eb3:	ff ff  <unknown>
     eb5:	ff ff  <unknown>
     eb7:	ff a9 08 00 00 00 	ljmpl	*8(%rcx)
     ebd:	00 00 	addb	%al, (%rax)
     ebf:	00 04 00 	addb	%al, (%rax,%rax)
     ec2:	00 00 	addb	%al, (%rax)
     ec4:	26 00 00 	addb	%al, %es:(%rax)
     ec7:	00 fc 	addb	%bh, %ah
     ec9:	ff ff  <unknown>
     ecb:	ff ff  <unknown>
     ecd:	ff ff  <unknown>
     ecf:	ff b9 08 00 00 00  <unknown>
     ed5:	00 00 	addb	%al, (%rax)
     ed7:	00 02 	addb	%al, (%rdx)
     ed9:	00 00 	addb	%al, (%rax)
     edb:	00 05 00 00 00 50 	addb	%al, 1342177280(%rip)
     ee1:	01 00 	addl	%eax, (%rax)
     ee3:	00 00 	addb	%al, (%rax)
     ee5:	00 00 	addb	%al, (%rax)
     ee7:	00 c2 	addb	%al, %dl
     ee9:	08 00 	orb	%al, (%rax)
     eeb:	00 00 	addb	%al, (%rax)
     eed:	00 00 	addb	%al, (%rax)
     eef:	00 02 	addb	%al, (%rdx)
     ef1:	00 00 	addb	%al, (%rax)
     ef3:	00 05 00 00 00 58 	addb	%al, 1476395008(%rip)
     ef9:	01 00 	addl	%eax, (%rax)
     efb:	00 00 	addb	%al, (%rax)
     efd:	00 00 	addb	%al, (%rax)
     eff:	00 cd 	addb	%cl, %ch
     f01:	08 00 	orb	%al, (%rax)
     f03:	00 00 	addb	%al, (%rax)
     f05:	00 00 	addb	%al, (%rax)
     f07:	00 04 00 	addb	%al, (%rax,%rax)
     f0a:	00 00 	addb	%al, (%rax)
     f0c:	26 00 00 	addb	%al, %es:(%rax)
     f0f:	00 fc 	addb	%bh, %ah
     f11:	ff ff  <unknown>
     f13:	ff ff  <unknown>
     f15:	ff ff  <unknown>
     f17:	ff d7 	callq	*%rdi
     f19:	08 00 	orb	%al, (%rax)
     f1b:	00 00 	addb	%al, (%rax)
     f1d:	00 00 	addb	%al, (%rax)
     f1f:	00 02 	addb	%al, (%rdx)
     f21:	00 00 	addb	%al, (%rax)
     f23:	00 04 00 	addb	%al, (%rax,%rax)
     f26:	00 00 	addb	%al, (%rax)
     f28:	18 00 	sbbb	%al, (%rax)
     f2a:	00 00 	addb	%al, (%rax)
     f2c:	00 00 	addb	%al, (%rax)
     f2e:	00 00 	addb	%al, (%rax)
     f30:	e2 08 	loop	8
     f32:	00 00 	addb	%al, (%rax)
     f34:	00 00 	addb	%al, (%rax)
     f36:	00 00 	addb	%al, (%rax)
     f38:	02 00 	addb	(%rax), %al
     f3a:	00 00 	addb	%al, (%rax)
     f3c:	05 00 00 00 60 	addl	$1610612736, %eax
     f41:	01 00 	addl	%eax, (%rax)
     f43:	00 00 	addb	%al, (%rax)
     f45:	00 00 	addb	%al, (%rax)
     f47:	00 e9 	addb	%ch, %cl
     f49:	08 00 	orb	%al, (%rax)
     f4b:	00 00 	addb	%al, (%rax)
     f4d:	00 00 	addb	%al, (%rax)
     f4f:	00 2a 	addb	%ch, (%rdx)
     f51:	00 00 	addb	%al, (%rax)
     f53:	00 2c 00 	addb	%ch, (%rax,%rax)
     f56:	00 00 	addb	%al, (%rax)
     f58:	fc 	cld
     f59:	ff ff  <unknown>
     f5b:	ff ff  <unknown>
     f5d:	ff ff  <unknown>
     f5f:	ff f1 	pushq	%rcx
     f61:	08 00 	orb	%al, (%rax)
     f63:	00 00 	addb	%al, (%rax)
     f65:	00 00 	addb	%al, (%rax)
     f67:	00 04 00 	addb	%al, (%rax,%rax)
     f6a:	00 00 	addb	%al, (%rax)
     f6c:	26 00 00 	addb	%al, %es:(%rax)
     f6f:	00 fc 	addb	%bh, %ah
     f71:	ff ff  <unknown>
     f73:	ff ff  <unknown>
     f75:	ff ff  <unknown>
     f77:	ff fb  <unknown>
     f79:	08 00 	orb	%al, (%rax)
     f7b:	00 00 	addb	%al, (%rax)
     f7d:	00 00 	addb	%al, (%rax)
     f7f:	00 2a 	addb	%ch, (%rdx)
     f81:	00 00 	addb	%al, (%rax)
     f83:	00 28 	addb	%ch, (%rax)
     f85:	00 00 	addb	%al, (%rax)
     f87:	00 fc 	addb	%bh, %ah
     f89:	ff ff  <unknown>
     f8b:	ff ff  <unknown>
     f8d:	ff ff  <unknown>
     f8f:	ff 06 	incl	(%rsi)
     f91:	09 00 	orl	%eax, (%rax)
     f93:	00 00 	addb	%al, (%rax)
     f95:	00 00 	addb	%al, (%rax)
     f97:	00 04 00 	addb	%al, (%rax,%rax)
     f9a:	00 00 	addb	%al, (%rax)
     f9c:	29 00 	subl	%eax, (%rax)
     f9e:	00 00 	addb	%al, (%rax)
     fa0:	fc 	cld
     fa1:	ff ff  <unknown>
     fa3:	ff ff  <unknown>
     fa5:	ff ff  <unknown>
     fa7:	ff 17 	callq	*(%rdi)
     fa9:	09 00 	orl	%eax, (%rax)
     fab:	00 00 	addb	%al, (%rax)
     fad:	00 00 	addb	%al, (%rax)
     faf:	00 02 	addb	%al, (%rdx)
     fb1:	00 00 	addb	%al, (%rax)
     fb3:	00 05 00 00 00 72 	addb	%al, 1912602624(%rip)
     fb9:	01 00 	addl	%eax, (%rax)
     fbb:	00 00 	addb	%al, (%rax)
     fbd:	00 00 	addb	%al, (%rax)
     fbf:	00 1e 	addb	%bl, (%rsi)
     fc1:	09 00 	orl	%eax, (%rax)
     fc3:	00 00 	addb	%al, (%rax)
     fc5:	00 00 	addb	%al, (%rax)
     fc7:	00 2a 	addb	%ch, (%rdx)
     fc9:	00 00 	addb	%al, (%rax)
     fcb:	00 2c 00 	addb	%ch, (%rax,%rax)
     fce:	00 00 	addb	%al, (%rax)
     fd0:	fc 	cld
     fd1:	ff ff  <unknown>
     fd3:	ff ff  <unknown>
     fd5:	ff ff  <unknown>
     fd7:	ff 26 	jmpq	*(%rsi)
     fd9:	09 00 	orl	%eax, (%rax)
     fdb:	00 00 	addb	%al, (%rax)
     fdd:	00 00 	addb	%al, (%rax)
     fdf:	00 04 00 	addb	%al, (%rax,%rax)
     fe2:	00 00 	addb	%al, (%rax)
     fe4:	26 00 00 	addb	%al, %es:(%rax)
     fe7:	00 fc 	addb	%bh, %ah
     fe9:	ff ff  <unknown>
     feb:	ff ff  <unknown>
     fed:	ff ff  <unknown>
     fef:	ff 30 	pushq	(%rax)
     ff1:	09 00 	orl	%eax, (%rax)
     ff3:	00 00 	addb	%al, (%rax)
     ff5:	00 00 	addb	%al, (%rax)
     ff7:	00 2a 	addb	%ch, (%rdx)
     ff9:	00 00 	addb	%al, (%rax)
     ffb:	00 28 	addb	%ch, (%rax)
     ffd:	00 00 	addb	%al, (%rax)
     fff:	00 fc 	addb	%bh, %ah
    1001:	ff ff  <unknown>
    1003:	ff ff  <unknown>
    1005:	ff ff  <unknown>
    1007:	ff 3b  <unknown>
    1009:	09 00 	orl	%eax, (%rax)
    100b:	00 00 	addb	%al, (%rax)
    100d:	00 00 	addb	%al, (%rax)
    100f:	00 04 00 	addb	%al, (%rax,%rax)
    1012:	00 00 	addb	%al, (%rax)
    1014:	29 00 	subl	%eax, (%rax)
    1016:	00 00 	addb	%al, (%rax)
    1018:	fc 	cld
    1019:	ff ff  <unknown>
    101b:	ff ff  <unknown>
    101d:	ff ff  <unknown>
    101f:	ff 48 09 	decl	9(%rax)
    1022:	00 00 	addb	%al, (%rax)
    1024:	00 00 	addb	%al, (%rax)
    1026:	00 00 	addb	%al, (%rax)
    1028:	02 00 	addb	(%rax), %al
    102a:	00 00 	addb	%al, (%rax)
    102c:	05 00 00 00 80 	addl	$2147483648, %eax
    1031:	01 00 	addl	%eax, (%rax)
    1033:	00 00 	addb	%al, (%rax)
    1035:	00 00 	addb	%al, (%rax)
    1037:	00 4f 09 	addb	%cl, 9(%rdi)
    103a:	00 00 	addb	%al, (%rax)
    103c:	00 00 	addb	%al, (%rax)
    103e:	00 00 	addb	%al, (%rax)
    1040:	2a 00 	subb	(%rax), %al
    1042:	00 00 	addb	%al, (%rax)
    1044:	2c 00 	subb	$0, %al
    1046:	00 00 	addb	%al, (%rax)
    1048:	fc 	cld
    1049:	ff ff  <unknown>
    104b:	ff ff  <unknown>
    104d:	ff ff  <unknown>
    104f:	ff 57 09 	callq	*9(%rdi)
    1052:	00 00 	addb	%al, (%rax)
    1054:	00 00 	addb	%al, (%rax)
    1056:	00 00 	addb	%al, (%rax)
    1058:	04 00 	addb	$0, %al
    105a:	00 00 	addb	%al, (%rax)
    105c:	26 00 00 	addb	%al, %es:(%rax)
    105f:	00 fc 	addb	%bh, %ah
    1061:	ff ff  <unknown>
    1063:	ff ff  <unknown>
    1065:	ff ff  <unknown>
    1067:	ff 6f 09 	ljmpl	*9(%rdi)
    106a:	00 00 	addb	%al, (%rax)
    106c:	00 00 	addb	%al, (%rax)
    106e:	00 00 	addb	%al, (%rax)
    1070:	04 00 	addb	$0, %al
    1072:	00 00 	addb	%al, (%rax)
    1074:	2e 00 00 	addb	%al, %cs:(%rax)
    1077:	00 fc 	addb	%bh, %ah
    1079:	ff ff  <unknown>
    107b:	ff ff  <unknown>
    107d:	ff ff  <unknown>
    107f:	ff 76 09 	pushq	9(%rsi)
    1082:	00 00 	addb	%al, (%rax)
    1084:	00 00 	addb	%al, (%rax)
    1086:	00 00 	addb	%al, (%rax)
    1088:	02 00 	addb	(%rax), %al
    108a:	00 00 	addb	%al, (%rax)
    108c:	05 00 00 00 9b 	addl	$2600468480, %eax
    1091:	01 00 	addl	%eax, (%rax)
    1093:	00 00 	addb	%al, (%rax)
    1095:	00 00 	addb	%al, (%rax)
    1097:	00 7e 09 	addb	%bh, 9(%rsi)
    109a:	00 00 	addb	%al, (%rax)
    109c:	00 00 	addb	%al, (%rax)
    109e:	00 00 	addb	%al, (%rax)
    10a0:	04 00 	addb	$0, %al
    10a2:	00 00 	addb	%al, (%rax)
    10a4:	26 00 00 	addb	%al, %es:(%rax)
    10a7:	00 fc 	addb	%bh, %ah
    10a9:	ff ff  <unknown>
    10ab:	ff ff  <unknown>
    10ad:	ff ff  <unknown>
    10af:	ff 85 09 00 00 00 	incl	9(%rbp)
    10b5:	00 00 	addb	%al, (%rax)
    10b7:	00 02 	addb	%al, (%rdx)
    10b9:	00 00 	addb	%al, (%rax)
    10bb:	00 04 00 	addb	%al, (%rax,%rax)
    10be:	00 00 	addb	%al, (%rax)
    10c0:	04 00 	addb	$0, %al
    10c2:	00 00 	addb	%al, (%rax)
    10c4:	00 00 	addb	%al, (%rax)
    10c6:	00 00 	addb	%al, (%rax)
    10c8:	9c 	pushfq
    10c9:	09 00 	orl	%eax, (%rax)
    10cb:	00 00 	addb	%al, (%rax)
    10cd:	00 00 	addb	%al, (%rax)
    10cf:	00 04 00 	addb	%al, (%rax,%rax)
    10d2:	00 00 	addb	%al, (%rax)
    10d4:	2b 00 	subl	(%rax), %eax
    10d6:	00 00 	addb	%al, (%rax)
    10d8:	fc 	cld
    10d9:	ff ff  <unknown>
    10db:	ff ff  <unknown>
    10dd:	ff ff  <unknown>
    10df:	ff c0 	incl	%eax
    10e1:	09 00 	orl	%eax, (%rax)
    10e3:	00 00 	addb	%al, (%rax)
    10e5:	00 00 	addb	%al, (%rax)
    10e7:	00 02 	addb	%al, (%rdx)
    10e9:	00 00 	addb	%al, (%rax)
    10eb:	00 04 00 	addb	%al, (%rax,%rax)
    10ee:	00 00 	addb	%al, (%rax)
    10f0:	04 00 	addb	$0, %al
    10f2:	00 00 	addb	%al, (%rax)
    10f4:	00 00 	addb	%al, (%rax)
    10f6:	00 00 	addb	%al, (%rax)
    10f8:	d1 09 	rorl	(%rcx)
    10fa:	00 00 	addb	%al, (%rax)
    10fc:	00 00 	addb	%al, (%rax)
    10fe:	00 00 	addb	%al, (%rax)
    1100:	02 00 	addb	(%rax), %al
    1102:	00 00 	addb	%al, (%rax)
    1104:	04 00 	addb	$0, %al
    1106:	00 00 	addb	%al, (%rax)
    1108:	04 00 	addb	$0, %al
    110a:	00 00 	addb	%al, (%rax)
    110c:	00 00 	addb	%al, (%rax)
    110e:	00 00 	addb	%al, (%rax)
    1110:	e2 09 	loop	9
    1112:	00 00 	addb	%al, (%rax)
    1114:	00 00 	addb	%al, (%rax)
    1116:	00 00 	addb	%al, (%rax)
    1118:	02 00 	addb	(%rax), %al
    111a:	00 00 	addb	%al, (%rax)
    111c:	04 00 	addb	$0, %al
    111e:	00 00 	addb	%al, (%rax)
    1120:	0c 00 	orb	$0, %al
    1122:	00 00 	addb	%al, (%rax)
    1124:	00 00 	addb	%al, (%rax)
    1126:	00 00 	addb	%al, (%rax)
    1128:	ef 	outl	%eax, %dx
    1129:	09 00 	orl	%eax, (%rax)
    112b:	00 00 	addb	%al, (%rax)
    112d:	00 00 	addb	%al, (%rax)
    112f:	00 02 	addb	%al, (%rdx)
    1131:	00 00 	addb	%al, (%rax)
    1133:	00 05 00 00 00 3c 	addb	%al, 1006632960(%rip)
    1139:	04 00 	addb	$0, %al
    113b:	00 00 	addb	%al, (%rax)
    113d:	00 00 	addb	%al, (%rax)
    113f:	00 ff 	addb	%bh, %bh
    1141:	09 00 	orl	%eax, (%rax)
    1143:	00 00 	addb	%al, (%rax)
    1145:	00 00 	addb	%al, (%rax)
    1147:	00 02 	addb	%al, (%rdx)
    1149:	00 00 	addb	%al, (%rax)
    114b:	00 04 00 	addb	%al, (%rax,%rax)
    114e:	00 00 	addb	%al, (%rax)
    1150:	0c 00 	orb	$0, %al
    1152:	00 00 	addb	%al, (%rax)
    1154:	00 00 	addb	%al, (%rax)
    1156:	00 00 	addb	%al, (%rax)
    1158:	0c 0a 	orb	$10, %al
    115a:	00 00 	addb	%al, (%rax)
    115c:	00 00 	addb	%al, (%rax)
    115e:	00 00 	addb	%al, (%rax)
    1160:	02 00 	addb	(%rax), %al
    1162:	00 00 	addb	%al, (%rax)
    1164:	05 00 00 00 3c 	addl	$1006632960, %eax
    1169:	04 00 	addb	$0, %al
    116b:	00 00 	addb	%al, (%rax)
    116d:	00 00 	addb	%al, (%rax)
    116f:	00 28 	addb	%ch, (%rax)
    1171:	0a 00 	orb	(%rax), %al
    1173:	00 00 	addb	%al, (%rax)
    1175:	00 00 	addb	%al, (%rax)
    1177:	00 02 	addb	%al, (%rdx)
    1179:	00 00 	addb	%al, (%rax)
    117b:	00 04 00 	addb	%al, (%rax,%rax)
    117e:	00 00 	addb	%al, (%rax)
    1180:	04 00 	addb	$0, %al
    1182:	00 00 	addb	%al, (%rax)
    1184:	00 00 	addb	%al, (%rax)
    1186:	00 00 	addb	%al, (%rax)
    1188:	30 0a 	xorb	%cl, (%rdx)
    118a:	00 00 	addb	%al, (%rax)
    118c:	00 00 	addb	%al, (%rax)
    118e:	00 00 	addb	%al, (%rax)
    1190:	02 00 	addb	(%rax), %al
    1192:	00 00 	addb	%al, (%rax)
    1194:	04 00 	addb	$0, %al
    1196:	00 00 	addb	%al, (%rax)
    1198:	04 00 	addb	$0, %al
    119a:	00 00 	addb	%al, (%rax)
    119c:	00 00 	addb	%al, (%rax)
    119e:	00 00 	addb	%al, (%rax)
    11a0:	3c 0a 	cmpb	$10, %al
    11a2:	00 00 	addb	%al, (%rax)
    11a4:	00 00 	addb	%al, (%rax)
    11a6:	00 00 	addb	%al, (%rax)
    11a8:	02 00 	addb	(%rax), %al
    11aa:	00 00 	addb	%al, (%rax)
    11ac:	04 00 	addb	$0, %al
    11ae:	00 00 	addb	%al, (%rax)
    11b0:	0c 00 	orb	$0, %al
    11b2:	00 00 	addb	%al, (%rax)
    11b4:	00 00 	addb	%al, (%rax)
    11b6:	00 00 	addb	%al, (%rax)
    11b8:	44 0a 00 	orb	(%rax), %r8b
    11bb:	00 00 	addb	%al, (%rax)
    11bd:	00 00 	addb	%al, (%rax)
    11bf:	00 02 	addb	%al, (%rdx)
    11c1:	00 00 	addb	%al, (%rax)
    11c3:	00 04 00 	addb	%al, (%rax,%rax)
    11c6:	00 00 	addb	%al, (%rax)
    11c8:	0c 00 	orb	$0, %al
    11ca:	00 00 	addb	%al, (%rax)
    11cc:	00 00 	addb	%al, (%rax)
    11ce:	00 00 	addb	%al, (%rax)
    11d0:	55 	pushq	%rbp
    11d1:	0a 00 	orb	(%rax), %al
    11d3:	00 00 	addb	%al, (%rax)
    11d5:	00 00 	addb	%al, (%rax)
    11d7:	00 04 00 	addb	%al, (%rax,%rax)
    11da:	00 00 	addb	%al, (%rax)
    11dc:	24 00 	andb	$0, %al
    11de:	00 00 	addb	%al, (%rax)
    11e0:	fc 	cld
    11e1:	ff ff  <unknown>
    11e3:	ff ff  <unknown>
    11e5:	ff ff  <unknown>
    11e7:	ff 65 0a 	jmpq	*10(%rbp)
    11ea:	00 00 	addb	%al, (%rax)
    11ec:	00 00 	addb	%al, (%rax)
    11ee:	00 00 	addb	%al, (%rax)
    11f0:	02 00 	addb	(%rax), %al
    11f2:	00 00 	addb	%al, (%rax)
    11f4:	05 00 00 00 9d 	addl	$2634022912, %eax
    11f9:	01 00 	addl	%eax, (%rax)
    11fb:	00 00 	addb	%al, (%rax)
    11fd:	00 00 	addb	%al, (%rax)
    11ff:	00 6c 0a 00 	addb	%ch, (%rdx,%rcx)
    1203:	00 00 	addb	%al, (%rax)
    1205:	00 00 	addb	%al, (%rax)
    1207:	00 2a 	addb	%ch, (%rdx)
    1209:	00 00 	addb	%al, (%rax)
    120b:	00 2c 00 	addb	%ch, (%rax,%rax)
    120e:	00 00 	addb	%al, (%rax)
    1210:	fc 	cld
    1211:	ff ff  <unknown>
    1213:	ff ff  <unknown>
    1215:	ff ff  <unknown>
    1217:	ff 74 0a 00 	pushq	(%rdx,%rcx)
    121b:	00 00 	addb	%al, (%rax)
    121d:	00 00 	addb	%al, (%rax)
    121f:	00 04 00 	addb	%al, (%rax,%rax)
    1222:	00 00 	addb	%al, (%rax)
    1224:	26 00 00 	addb	%al, %es:(%rax)
    1227:	00 fc 	addb	%bh, %ah
    1229:	ff ff  <unknown>
    122b:	ff ff  <unknown>
    122d:	ff ff  <unknown>
    122f:	ff 8c 0a 00 00 00 00 	decl	(%rdx,%rcx)
    1236:	00 00 	addb	%al, (%rax)
    1238:	04 00 	addb	$0, %al
    123a:	00 00 	addb	%al, (%rax)
    123c:	2e 00 00 	addb	%al, %cs:(%rax)
    123f:	00 fc 	addb	%bh, %ah
    1241:	ff ff  <unknown>
    1243:	ff ff  <unknown>
    1245:	ff ff  <unknown>
    1247:	ff 93 0a 00 00 00 	callq	*10(%rbx)
    124d:	00 00 	addb	%al, (%rax)
    124f:	00 02 	addb	%al, (%rdx)
    1251:	00 00 	addb	%al, (%rax)
    1253:	00 05 00 00 00 b8 	addb	%al, -1207959552(%rip)
    1259:	01 00 	addl	%eax, (%rax)
    125b:	00 00 	addb	%al, (%rax)
    125d:	00 00 	addb	%al, (%rax)
    125f:	00 9b 0a 00 00 00 	addb	%bl, 10(%rbx)
    1265:	00 00 	addb	%al, (%rax)
    1267:	00 04 00 	addb	%al, (%rax,%rax)
    126a:	00 00 	addb	%al, (%rax)
    126c:	26 00 00 	addb	%al, %es:(%rax)
    126f:	00 fc 	addb	%bh, %ah
    1271:	ff ff  <unknown>
    1273:	ff ff  <unknown>
    1275:	ff ff  <unknown>
    1277:	ff b3 0a 00 00 00 	pushq	10(%rbx)
    127d:	00 00 	addb	%al, (%rax)
    127f:	00 04 00 	addb	%al, (%rax,%rax)
    1282:	00 00 	addb	%al, (%rax)
    1284:	2e 00 00 	addb	%al, %cs:(%rax)
    1287:	00 fc 	addb	%bh, %ah
    1289:	ff ff  <unknown>
    128b:	ff ff  <unknown>
    128d:	ff ff  <unknown>
    128f:	ff ba 0a 00 00 00  <unknown>
    1295:	00 00 	addb	%al, (%rax)
    1297:	00 02 	addb	%al, (%rdx)
    1299:	00 00 	addb	%al, (%rax)
    129b:	00 05 00 00 00 be 	addb	%al, -1107296256(%rip)
    12a1:	01 00 	addl	%eax, (%rax)
    12a3:	00 00 	addb	%al, (%rax)
    12a5:	00 00 	addb	%al, (%rax)
    12a7:	00 c2 	addb	%al, %dl
    12a9:	0a 00 	orb	(%rax), %al
    12ab:	00 00 	addb	%al, (%rax)
    12ad:	00 00 	addb	%al, (%rax)
    12af:	00 04 00 	addb	%al, (%rax,%rax)
    12b2:	00 00 	addb	%al, (%rax)
    12b4:	26 00 00 	addb	%al, %es:(%rax)
    12b7:	00 fc 	addb	%bh, %ah
    12b9:	ff ff  <unknown>
    12bb:	ff ff  <unknown>
    12bd:	ff ff  <unknown>
    12bf:	ff c9 	decl	%ecx
    12c1:	0a 00 	orb	(%rax), %al
    12c3:	00 00 	addb	%al, (%rax)
    12c5:	00 00 	addb	%al, (%rax)
    12c7:	00 02 	addb	%al, (%rdx)
    12c9:	00 00 	addb	%al, (%rax)
    12cb:	00 05 00 00 00 a4 	addb	%al, -1543503872(%rip)
    12d1:	00 00 	addb	%al, (%rax)
    12d3:	00 00 	addb	%al, (%rax)
    12d5:	00 00 	addb	%al, (%rax)
    12d7:	00 d1 	addb	%dl, %cl
    12d9:	0a 00 	orb	(%rax), %al
    12db:	00 00 	addb	%al, (%rax)
    12dd:	00 00 	addb	%al, (%rax)
    12df:	00 04 00 	addb	%al, (%rax,%rax)
    12e2:	00 00 	addb	%al, (%rax)
    12e4:	26 00 00 	addb	%al, %es:(%rax)
    12e7:	00 fc 	addb	%bh, %ah
    12e9:	ff ff  <unknown>
    12eb:	ff ff  <unknown>
    12ed:	ff ff  <unknown>
    12ef:	ff de  <unknown>
    12f1:	0a 00 	orb	(%rax), %al
    12f3:	00 00 	addb	%al, (%rax)
    12f5:	00 00 	addb	%al, (%rax)
    12f7:	00 04 00 	addb	%al, (%rax,%rax)
    12fa:	00 00 	addb	%al, (%rax)
    12fc:	1f  <unknown>
    12fd:	00 00 	addb	%al, (%rax)
    12ff:	00 fc 	addb	%bh, %ah
    1301:	ff ff  <unknown>
    1303:	ff ff  <unknown>
    1305:	ff ff  <unknown>
    1307:	ff e8  <unknown>
    1309:	0a 00 	orb	(%rax), %al
    130b:	00 00 	addb	%al, (%rax)
    130d:	00 00 	addb	%al, (%rax)
    130f:	00 04 00 	addb	%al, (%rax,%rax)
    1312:	00 00 	addb	%al, (%rax)
    1314:	2d 00 00 00 fc 	subl	$4227858432, %eax
    1319:	ff ff  <unknown>
    131b:	ff ff  <unknown>
    131d:	ff ff  <unknown>
    131f:	ff 00 	incl	(%rax)
    1321:	0b 00 	orl	(%rax), %eax
    1323:	00 00 	addb	%al, (%rax)
    1325:	00 00 	addb	%al, (%rax)
    1327:	00 04 00 	addb	%al, (%rax,%rax)
    132a:	00 00 	addb	%al, (%rax)
    132c:	2e 00 00 	addb	%al, %cs:(%rax)
    132f:	00 fc 	addb	%bh, %ah
    1331:	ff ff  <unknown>
    1333:	ff ff  <unknown>
    1335:	ff ff  <unknown>
    1337:	ff 12 	callq	*(%rdx)
    1339:	0b 00 	orl	(%rax), %eax
    133b:	00 00 	addb	%al, (%rax)
    133d:	00 00 	addb	%al, (%rax)
    133f:	00 02 	addb	%al, (%rdx)
    1341:	00 00 	addb	%al, (%rax)
    1343:	00 05 00 00 00 c4 	addb	%al, -1006632960(%rip)
    1349:	01 00 	addl	%eax, (%rax)
    134b:	00 00 	addb	%al, (%rax)
    134d:	00 00 	addb	%al, (%rax)
    134f:	00 19 	addb	%bl, (%rcx)
    1351:	0b 00 	orl	(%rax), %eax
    1353:	00 00 	addb	%al, (%rax)
    1355:	00 00 	addb	%al, (%rax)
    1357:	00 2a 	addb	%ch, (%rdx)
    1359:	00 00 	addb	%al, (%rax)
    135b:	00 2c 00 	addb	%ch, (%rax,%rax)
    135e:	00 00 	addb	%al, (%rax)
    1360:	fc 	cld
    1361:	ff ff  <unknown>
    1363:	ff ff  <unknown>
    1365:	ff ff  <unknown>
    1367:	ff 21 	jmpq	*(%rcx)
    1369:	0b 00 	orl	(%rax), %eax
    136b:	00 00 	addb	%al, (%rax)
    136d:	00 00 	addb	%al, (%rax)
    136f:	00 04 00 	addb	%al, (%rax,%rax)
    1372:	00 00 	addb	%al, (%rax)
    1374:	26 00 00 	addb	%al, %es:(%rax)
    1377:	00 fc 	addb	%bh, %ah
    1379:	ff ff  <unknown>
    137b:	ff ff  <unknown>
    137d:	ff ff  <unknown>
    137f:	ff 2b 	ljmpl	*(%rbx)
    1381:	0b 00 	orl	(%rax), %eax
    1383:	00 00 	addb	%al, (%rax)
    1385:	00 00 	addb	%al, (%rax)
    1387:	00 2a 	addb	%ch, (%rdx)
    1389:	00 00 	addb	%al, (%rax)
    138b:	00 28 	addb	%ch, (%rax)
    138d:	00 00 	addb	%al, (%rax)
    138f:	00 fc 	addb	%bh, %ah
    1391:	ff ff  <unknown>
    1393:	ff ff  <unknown>
    1395:	ff ff  <unknown>
    1397:	ff 36 	pushq	(%rsi)
    1399:	0b 00 	orl	(%rax), %eax
    139b:	00 00 	addb	%al, (%rax)
    139d:	00 00 	addb	%al, (%rax)
    139f:	00 04 00 	addb	%al, (%rax,%rax)
    13a2:	00 00 	addb	%al, (%rax)
    13a4:	29 00 	subl	%eax, (%rax)
    13a6:	00 00 	addb	%al, (%rax)
    13a8:	fc 	cld
    13a9:	ff ff  <unknown>
    13ab:	ff ff  <unknown>
    13ad:	ff ff  <unknown>
    13af:	ff 48 0b 	decl	11(%rax)
    13b2:	00 00 	addb	%al, (%rax)
    13b4:	00 00 	addb	%al, (%rax)
    13b6:	00 00 	addb	%al, (%rax)
    13b8:	02 00 	addb	(%rax), %al
    13ba:	00 00 	addb	%al, (%rax)
    13bc:	03 00 	addl	(%rax), %eax
    13be:	00 00 	addb	%al, (%rax)
    13c0:	fc 	cld
    13c1:	ff ff  <unknown>
    13c3:	ff ff  <unknown>
    13c5:	ff ff  <unknown>
    13c7:	ff 56 0b 	callq	*11(%rsi)
    13ca:	00 00 	addb	%al, (%rax)
    13cc:	00 00 	addb	%al, (%rax)
    13ce:	00 00 	addb	%al, (%rax)
    13d0:	02 00 	addb	(%rax), %al
    13d2:	00 00 	addb	%al, (%rax)
    13d4:	05 00 00 00 da 	addl	$3657433088, %eax
    13d9:	00 00 	addb	%al, (%rax)
    13db:	00 00 	addb	%al, (%rax)
    13dd:	00 00 	addb	%al, (%rax)
    13df:	00 5d 0b 	addb	%bl, 11(%rbp)
    13e2:	00 00 	addb	%al, (%rax)
    13e4:	00 00 	addb	%al, (%rax)
    13e6:	00 00 	addb	%al, (%rax)
    13e8:	2a 00 	subb	(%rax), %al
    13ea:	00 00 	addb	%al, (%rax)
    13ec:	2c 00 	subb	$0, %al
    13ee:	00 00 	addb	%al, (%rax)
    13f0:	fc 	cld
    13f1:	ff ff  <unknown>
    13f3:	ff ff  <unknown>
    13f5:	ff ff  <unknown>
    13f7:	ff 65 0b 	jmpq	*11(%rbp)
    13fa:	00 00 	addb	%al, (%rax)
    13fc:	00 00 	addb	%al, (%rax)
    13fe:	00 00 	addb	%al, (%rax)
    1400:	04 00 	addb	$0, %al
    1402:	00 00 	addb	%al, (%rax)
    1404:	26 00 00 	addb	%al, %es:(%rax)
    1407:	00 fc 	addb	%bh, %ah
    1409:	ff ff  <unknown>
    140b:	ff ff  <unknown>
    140d:	ff ff  <unknown>
    140f:	ff 6f 0b 	ljmpl	*11(%rdi)
    1412:	00 00 	addb	%al, (%rax)
    1414:	00 00 	addb	%al, (%rax)
    1416:	00 00 	addb	%al, (%rax)
    1418:	2a 00 	subb	(%rax), %al
    141a:	00 00 	addb	%al, (%rax)
    141c:	28 00 	subb	%al, (%rax)
    141e:	00 00 	addb	%al, (%rax)
    1420:	fc 	cld
    1421:	ff ff  <unknown>
    1423:	ff ff  <unknown>
    1425:	ff ff  <unknown>
    1427:	ff 7a 0b  <unknown>
    142a:	00 00 	addb	%al, (%rax)
    142c:	00 00 	addb	%al, (%rax)
    142e:	00 00 	addb	%al, (%rax)
    1430:	04 00 	addb	$0, %al
    1432:	00 00 	addb	%al, (%rax)
    1434:	29 00 	subl	%eax, (%rax)
    1436:	00 00 	addb	%al, (%rax)
    1438:	fc 	cld
    1439:	ff ff  <unknown>
    143b:	ff ff  <unknown>
    143d:	ff ff  <unknown>
    143f:	ff 86 0b 00 00 00 	incl	11(%rsi)
    1445:	00 00 	addb	%al, (%rax)
    1447:	00 02 	addb	%al, (%rdx)
    1449:	00 00 	addb	%al, (%rax)
    144b:	00 05 00 00 00 e3 	addb	%al, -486539264(%rip)
    1451:	00 00 	addb	%al, (%rax)
    1453:	00 00 	addb	%al, (%rax)
    1455:	00 00 	addb	%al, (%rax)
    1457:	00 8d 0b 00 00 00 	addb	%cl, 11(%rbp)
    145d:	00 00 	addb	%al, (%rax)
    145f:	00 2a 	addb	%ch, (%rdx)
    1461:	00 00 	addb	%al, (%rax)
    1463:	00 2c 00 	addb	%ch, (%rax,%rax)
    1466:	00 00 	addb	%al, (%rax)
    1468:	fc 	cld
    1469:	ff ff  <unknown>
    146b:	ff ff  <unknown>
    146d:	ff ff  <unknown>
    146f:	ff 95 0b 00 00 00 	callq	*11(%rbp)
    1475:	00 00 	addb	%al, (%rax)
    1477:	00 04 00 	addb	%al, (%rax,%rax)
    147a:	00 00 	addb	%al, (%rax)
    147c:	26 00 00 	addb	%al, %es:(%rax)
    147f:	00 fc 	addb	%bh, %ah
    1481:	ff ff  <unknown>
    1483:	ff ff  <unknown>
    1485:	ff ff  <unknown>
    1487:	ff 9f 0b 00 00 00 	lcalll	*11(%rdi)
    148d:	00 00 	addb	%al, (%rax)
    148f:	00 2a 	addb	%ch, (%rdx)
    1491:	00 00 	addb	%al, (%rax)
    1493:	00 28 	addb	%ch, (%rax)
    1495:	00 00 	addb	%al, (%rax)
    1497:	00 fc 	addb	%bh, %ah
    1499:	ff ff  <unknown>
    149b:	ff ff  <unknown>
    149d:	ff ff  <unknown>
    149f:	ff aa 0b 00 00 00 	ljmpl	*11(%rdx)
    14a5:	00 00 	addb	%al, (%rax)
    14a7:	00 04 00 	addb	%al, (%rax,%rax)
    14aa:	00 00 	addb	%al, (%rax)
    14ac:	29 00 	subl	%eax, (%rax)
    14ae:	00 00 	addb	%al, (%rax)
    14b0:	fc 	cld
    14b1:	ff ff  <unknown>
    14b3:	ff ff  <unknown>
    14b5:	ff ff  <unknown>
    14b7:	ff bb 0b 00 00 00  <unknown>
    14bd:	00 00 	addb	%al, (%rax)
    14bf:	00 02 	addb	%al, (%rdx)
    14c1:	00 00 	addb	%al, (%rax)
    14c3:	00 05 00 00 00 ec 	addb	%al, -335544320(%rip)
    14c9:	01 00 	addl	%eax, (%rax)
    14cb:	00 00 	addb	%al, (%rax)
    14cd:	00 00 	addb	%al, (%rax)
    14cf:	00 c2 	addb	%al, %dl
    14d1:	0b 00 	orl	(%rax), %eax
    14d3:	00 00 	addb	%al, (%rax)
    14d5:	00 00 	addb	%al, (%rax)
    14d7:	00 2a 	addb	%ch, (%rdx)
    14d9:	00 00 	addb	%al, (%rax)
    14db:	00 2c 00 	addb	%ch, (%rax,%rax)
    14de:	00 00 	addb	%al, (%rax)
    14e0:	fc 	cld
    14e1:	ff ff  <unknown>
    14e3:	ff ff  <unknown>
    14e5:	ff ff  <unknown>
    14e7:	ff ca 	decl	%edx
    14e9:	0b 00 	orl	(%rax), %eax
    14eb:	00 00 	addb	%al, (%rax)
    14ed:	00 00 	addb	%al, (%rax)
    14ef:	00 04 00 	addb	%al, (%rax,%rax)
    14f2:	00 00 	addb	%al, (%rax)
    14f4:	26 00 00 	addb	%al, %es:(%rax)
    14f7:	00 fc 	addb	%bh, %ah
    14f9:	ff ff  <unknown>
    14fb:	ff ff  <unknown>
    14fd:	ff ff  <unknown>
    14ff:	ff e2 	jmpq	*%rdx
    1501:	0b 00 	orl	(%rax), %eax
    1503:	00 00 	addb	%al, (%rax)
    1505:	00 00 	addb	%al, (%rax)
    1507:	00 04 00 	addb	%al, (%rax,%rax)
    150a:	00 00 	addb	%al, (%rax)
    150c:	2e 00 00 	addb	%al, %cs:(%rax)
    150f:	00 fc 	addb	%bh, %ah
    1511:	ff ff  <unknown>
    1513:	ff ff  <unknown>
    1515:	ff ff  <unknown>
    1517:	ff e9  <unknown>
    1519:	0b 00 	orl	(%rax), %eax
    151b:	00 00 	addb	%al, (%rax)
    151d:	00 00 	addb	%al, (%rax)
    151f:	00 02 	addb	%al, (%rdx)
    1521:	00 00 	addb	%al, (%rax)
    1523:	00 05 00 00 00 9b 	addb	%al, -1694498816(%rip)
    1529:	01 00 	addl	%eax, (%rax)
    152b:	00 00 	addb	%al, (%rax)
    152d:	00 00 	addb	%al, (%rax)
    152f:	00 f1 	addb	%dh, %cl
    1531:	0b 00 	orl	(%rax), %eax
    1533:	00 00 	addb	%al, (%rax)
    1535:	00 00 	addb	%al, (%rax)
    1537:	00 04 00 	addb	%al, (%rax,%rax)
    153a:	00 00 	addb	%al, (%rax)
    153c:	26 00 00 	addb	%al, %es:(%rax)
    153f:	00 fc 	addb	%bh, %ah
    1541:	ff ff  <unknown>
    1543:	ff ff  <unknown>
    1545:	ff ff  <unknown>
    1547:	ff fe  <unknown>
    1549:	0b 00 	orl	(%rax), %eax
    154b:	00 00 	addb	%al, (%rax)
    154d:	00 00 	addb	%al, (%rax)
    154f:	00 02 	addb	%al, (%rdx)
    1551:	00 00 	addb	%al, (%rax)
    1553:	00 05 00 00 00 3c 	addb	%al, 1006632960(%rip)
    1559:	04 00 	addb	$0, %al
    155b:	00 00 	addb	%al, (%rax)
    155d:	00 00 	addb	%al, (%rax)
    155f:	00 0f 	addb	%cl, (%rdi)
    1561:	0c 00 	orb	$0, %al
    1563:	00 00 	addb	%al, (%rax)
    1565:	00 00 	addb	%al, (%rax)
    1567:	00 02 	addb	%al, (%rdx)
    1569:	00 00 	addb	%al, (%rax)
    156b:	00 05 00 00 00 3c 	addb	%al, 1006632960(%rip)
    1571:	04 00 	addb	$0, %al
    1573:	00 00 	addb	%al, (%rax)
    1575:	00 00 	addb	%al, (%rax)
    1577:	00 20 	addb	%ah, (%rax)
    1579:	0c 00 	orb	$0, %al
    157b:	00 00 	addb	%al, (%rax)
    157d:	00 00 	addb	%al, (%rax)
    157f:	00 02 	addb	%al, (%rdx)
    1581:	00 00 	addb	%al, (%rax)
    1583:	00 05 00 00 00 07 	addb	%al, 117440512(%rip)
    1589:	02 00 	addb	(%rax), %al
    158b:	00 00 	addb	%al, (%rax)
    158d:	00 00 	addb	%al, (%rax)
    158f:	00 27 	addb	%ah, (%rdi)
    1591:	0c 00 	orb	$0, %al
    1593:	00 00 	addb	%al, (%rax)
    1595:	00 00 	addb	%al, (%rax)
    1597:	00 2a 	addb	%ch, (%rdx)
    1599:	00 00 	addb	%al, (%rax)
    159b:	00 2c 00 	addb	%ch, (%rax,%rax)
    159e:	00 00 	addb	%al, (%rax)
    15a0:	fc 	cld
    15a1:	ff ff  <unknown>
    15a3:	ff ff  <unknown>
    15a5:	ff ff  <unknown>
    15a7:	ff 2f 	ljmpl	*(%rdi)
    15a9:	0c 00 	orb	$0, %al
    15ab:	00 00 	addb	%al, (%rax)
    15ad:	00 00 	addb	%al, (%rax)
    15af:	00 04 00 	addb	%al, (%rax,%rax)
    15b2:	00 00 	addb	%al, (%rax)
    15b4:	26 00 00 	addb	%al, %es:(%rax)
    15b7:	00 fc 	addb	%bh, %ah
    15b9:	ff ff  <unknown>
    15bb:	ff ff  <unknown>
    15bd:	ff ff  <unknown>
    15bf:	ff 47 0c 	incl	12(%rdi)
    15c2:	00 00 	addb	%al, (%rax)
    15c4:	00 00 	addb	%al, (%rax)
    15c6:	00 00 	addb	%al, (%rax)
    15c8:	04 00 	addb	$0, %al
    15ca:	00 00 	addb	%al, (%rax)
    15cc:	2e 00 00 	addb	%al, %cs:(%rax)
    15cf:	00 fc 	addb	%bh, %ah
    15d1:	ff ff  <unknown>
    15d3:	ff ff  <unknown>
    15d5:	ff ff  <unknown>
    15d7:	ff 4e 0c 	decl	12(%rsi)
    15da:	00 00 	addb	%al, (%rax)
    15dc:	00 00 	addb	%al, (%rax)
    15de:	00 00 	addb	%al, (%rax)
    15e0:	02 00 	addb	(%rax), %al
    15e2:	00 00 	addb	%al, (%rax)
    15e4:	05 00 00 00 24 	addl	$603979776, %eax
    15e9:	02 00 	addb	(%rax), %al
    15eb:	00 00 	addb	%al, (%rax)
    15ed:	00 00 	addb	%al, (%rax)
    15ef:	00 55 0c 	addb	%dl, 12(%rbp)
    15f2:	00 00 	addb	%al, (%rax)
    15f4:	00 00 	addb	%al, (%rax)
    15f6:	00 00 	addb	%al, (%rax)
    15f8:	2a 00 	subb	(%rax), %al
    15fa:	00 00 	addb	%al, (%rax)
    15fc:	2c 00 	subb	$0, %al
    15fe:	00 00 	addb	%al, (%rax)
    1600:	fc 	cld
    1601:	ff ff  <unknown>
    1603:	ff ff  <unknown>
    1605:	ff ff  <unknown>
    1607:	ff 5d 0c 	lcalll	*12(%rbp)
    160a:	00 00 	addb	%al, (%rax)
    160c:	00 00 	addb	%al, (%rax)
    160e:	00 00 	addb	%al, (%rax)
    1610:	04 00 	addb	$0, %al
    1612:	00 00 	addb	%al, (%rax)
    1614:	26 00 00 	addb	%al, %es:(%rax)
    1617:	00 fc 	addb	%bh, %ah
    1619:	ff ff  <unknown>
    161b:	ff ff  <unknown>
    161d:	ff ff  <unknown>
    161f:	ff 64 0c 00 	jmpq	*(%rsp,%rcx)
    1623:	00 00 	addb	%al, (%rax)
    1625:	00 00 	addb	%al, (%rax)
    1627:	00 02 	addb	%al, (%rdx)
    1629:	00 00 	addb	%al, (%rax)
    162b:	00 05 00 00 00 64 	addb	%al, 1677721600(%rip)
    1631:	02 00 	addb	(%rax), %al
    1633:	00 00 	addb	%al, (%rax)
    1635:	00 00 	addb	%al, (%rax)
    1637:	00 6c 0c 00 	addb	%ch, (%rsp,%rcx)
    163b:	00 00 	addb	%al, (%rax)
    163d:	00 00 	addb	%al, (%rax)
    163f:	00 04 00 	addb	%al, (%rax,%rax)
    1642:	00 00 	addb	%al, (%rax)
    1644:	26 00 00 	addb	%al, %es:(%rax)
    1647:	00 fc 	addb	%bh, %ah
    1649:	ff ff  <unknown>
    164b:	ff ff  <unknown>
    164d:	ff ff  <unknown>
    164f:	ff 76 0c 	pushq	12(%rsi)
    1652:	00 00 	addb	%al, (%rax)
    1654:	00 00 	addb	%al, (%rax)
    1656:	00 00 	addb	%al, (%rax)
    1658:	2a 00 	subb	(%rax), %al
    165a:	00 00 	addb	%al, (%rax)
    165c:	28 00 	subb	%al, (%rax)
    165e:	00 00 	addb	%al, (%rax)
    1660:	fc 	cld
    1661:	ff ff  <unknown>
    1663:	ff ff  <unknown>
    1665:	ff ff  <unknown>
    1667:	ff 81 0c 00 00 00 	incl	12(%rcx)
    166d:	00 00 	addb	%al, (%rax)
    166f:	00 04 00 	addb	%al, (%rax,%rax)
    1672:	00 00 	addb	%al, (%rax)
    1674:	29 00 	subl	%eax, (%rax)
    1676:	00 00 	addb	%al, (%rax)
    1678:	fc 	cld
    1679:	ff ff  <unknown>
    167b:	ff ff  <unknown>
    167d:	ff ff  <unknown>
    167f:	ff 93 0c 00 00 00 	callq	*12(%rbx)
    1685:	00 00 	addb	%al, (%rax)
    1687:	00 02 	addb	%al, (%rdx)
    1689:	00 00 	addb	%al, (%rax)
    168b:	00 04 00 	addb	%al, (%rax,%rax)
    168e:	00 00 	addb	%al, (%rax)
    1690:	04 00 	addb	$0, %al
    1692:	00 00 	addb	%al, (%rax)
    1694:	00 00 	addb	%al, (%rax)
    1696:	00 00 	addb	%al, (%rax)
    1698:	9b 	wait
    1699:	0c 00 	orb	$0, %al
    169b:	00 00 	addb	%al, (%rax)
    169d:	00 00 	addb	%al, (%rax)
    169f:	00 02 	addb	%al, (%rdx)
    16a1:	00 00 	addb	%al, (%rax)
    16a3:	00 05 00 00 00 3c 	addb	%al, 1006632960(%rip)
    16a9:	04 00 	addb	$0, %al
    16ab:	00 00 	addb	%al, (%rax)
    16ad:	00 00 	addb	%al, (%rax)
    16af:	00 a7 0c 00 00 00 	addb	%ah, 12(%rdi)
    16b5:	00 00 	addb	%al, (%rax)
    16b7:	00 02 	addb	%al, (%rdx)
    16b9:	00 00 	addb	%al, (%rax)
    16bb:	00 04 00 	addb	%al, (%rax,%rax)
    16be:	00 00 	addb	%al, (%rax)
    16c0:	0c 00 	orb	$0, %al
    16c2:	00 00 	addb	%al, (%rax)
    16c4:	00 00 	addb	%al, (%rax)
    16c6:	00 00 	addb	%al, (%rax)
    16c8:	af 	scasl	%es:(%rdi), %eax
    16c9:	0c 00 	orb	$0, %al
    16cb:	00 00 	addb	%al, (%rax)
    16cd:	00 00 	addb	%al, (%rax)
    16cf:	00 02 	addb	%al, (%rdx)
    16d1:	00 00 	addb	%al, (%rax)
    16d3:	00 05 00 00 00 3c 	addb	%al, 1006632960(%rip)
    16d9:	04 00 	addb	$0, %al
    16db:	00 00 	addb	%al, (%rax)
    16dd:	00 00 	addb	%al, (%rax)
    16df:	00 c7 	addb	%al, %bh
    16e1:	0c 00 	orb	$0, %al
    16e3:	00 00 	addb	%al, (%rax)
    16e5:	00 00 	addb	%al, (%rax)
    16e7:	00 02 	addb	%al, (%rdx)
    16e9:	00 00 	addb	%al, (%rax)
    16eb:	00 04 00 	addb	%al, (%rax,%rax)
    16ee:	00 00 	addb	%al, (%rax)
    16f0:	04 00 	addb	$0, %al
    16f2:	00 00 	addb	%al, (%rax)
    16f4:	00 00 	addb	%al, (%rax)
    16f6:	00 00 	addb	%al, (%rax)
    16f8:	dd 0c 00 	fisttpll	(%rax,%rax)
    16fb:	00 00 	addb	%al, (%rax)
    16fd:	00 00 	addb	%al, (%rax)
    16ff:	00 02 	addb	%al, (%rdx)
    1701:	00 00 	addb	%al, (%rax)
    1703:	00 04 00 	addb	%al, (%rax,%rax)
    1706:	00 00 	addb	%al, (%rax)
    1708:	0c 00 	orb	$0, %al
    170a:	00 00 	addb	%al, (%rax)
    170c:	00 00 	addb	%al, (%rax)
    170e:	00 00 	addb	%al, (%rax)
    1710:	e4 0c 	inb	$12, %al
    1712:	00 00 	addb	%al, (%rax)
    1714:	00 00 	addb	%al, (%rax)
    1716:	00 00 	addb	%al, (%rax)
    1718:	02 00 	addb	(%rax), %al
    171a:	00 00 	addb	%al, (%rax)
    171c:	04 00 	addb	$0, %al
    171e:	00 00 	addb	%al, (%rax)
    1720:	04 00 	addb	$0, %al
    1722:	00 00 	addb	%al, (%rax)
    1724:	00 00 	addb	%al, (%rax)
    1726:	00 00 	addb	%al, (%rax)
    1728:	e9 0c 00 00 00 	jmp	12 <.rela.text+0x1739>
    172d:	00 00 	addb	%al, (%rax)
    172f:	00 04 00 	addb	%al, (%rax,%rax)
    1732:	00 00 	addb	%al, (%rax)
    1734:	31 00 	xorl	%eax, (%rax)
    1736:	00 00 	addb	%al, (%rax)
    1738:	fc 	cld
    1739:	ff ff  <unknown>
    173b:	ff ff  <unknown>
    173d:	ff ff  <unknown>
    173f:	ff f0 	pushq	%rax
    1741:	0c 00 	orb	$0, %al
    1743:	00 00 	addb	%al, (%rax)
    1745:	00 00 	addb	%al, (%rax)
    1747:	00 02 	addb	%al, (%rdx)
    1749:	00 00 	addb	%al, (%rax)
    174b:	00 04 00 	addb	%al, (%rax,%rax)
    174e:	00 00 	addb	%al, (%rax)
    1750:	04 00 	addb	$0, %al
    1752:	00 00 	addb	%al, (%rax)
    1754:	00 00 	addb	%al, (%rax)
    1756:	00 00 	addb	%al, (%rax)
    1758:	07  <unknown>
    1759:	0d 00 00 00 00 	orl	$0, %eax
    175e:	00 00 	addb	%al, (%rax)
    1760:	04 00 	addb	$0, %al
    1762:	00 00 	addb	%al, (%rax)
    1764:	2b 00 	subl	(%rax), %eax
    1766:	00 00 	addb	%al, (%rax)
    1768:	fc 	cld
    1769:	ff ff  <unknown>
    176b:	ff ff  <unknown>
    176d:	ff ff  <unknown>
    176f:	ff 11 	callq	*(%rcx)
    1771:	0d 00 00 00 00 	orl	$0, %eax
    1776:	00 00 	addb	%al, (%rax)
    1778:	02 00 	addb	(%rax), %al
    177a:	00 00 	addb	%al, (%rax)
    177c:	05 00 00 00 6c 	addl	$1811939328, %eax
    1781:	02 00 	addb	(%rax), %al
    1783:	00 00 	addb	%al, (%rax)
    1785:	00 00 	addb	%al, (%rax)
    1787:	00 18 	addb	%bl, (%rax)
    1789:	0d 00 00 00 00 	orl	$0, %eax
    178e:	00 00 	addb	%al, (%rax)
    1790:	2a 00 	subb	(%rax), %al
    1792:	00 00 	addb	%al, (%rax)
    1794:	2c 00 	subb	$0, %al
    1796:	00 00 	addb	%al, (%rax)
    1798:	fc 	cld
    1799:	ff ff  <unknown>
    179b:	ff ff  <unknown>
    179d:	ff ff  <unknown>
    179f:	ff 20 	jmpq	*(%rax)
    17a1:	0d 00 00 00 00 	orl	$0, %eax
    17a6:	00 00 	addb	%al, (%rax)
    17a8:	04 00 	addb	$0, %al
    17aa:	00 00 	addb	%al, (%rax)
    17ac:	26 00 00 	addb	%al, %es:(%rax)
    17af:	00 fc 	addb	%bh, %ah
    17b1:	ff ff  <unknown>
    17b3:	ff ff  <unknown>
    17b5:	ff ff  <unknown>
    17b7:	ff 38  <unknown>
    17b9:	0d 00 00 00 00 	orl	$0, %eax
    17be:	00 00 	addb	%al, (%rax)
    17c0:	04 00 	addb	$0, %al
    17c2:	00 00 	addb	%al, (%rax)
    17c4:	2e 00 00 	addb	%al, %cs:(%rax)
    17c7:	00 fc 	addb	%bh, %ah
    17c9:	ff ff  <unknown>
    17cb:	ff ff  <unknown>
    17cd:	ff ff  <unknown>
    17cf:	ff 3f  <unknown>
    17d1:	0d 00 00 00 00 	orl	$0, %eax
    17d6:	00 00 	addb	%al, (%rax)
    17d8:	02 00 	addb	(%rax), %al
    17da:	00 00 	addb	%al, (%rax)
    17dc:	05 00 00 00 9b 	addl	$2600468480, %eax
    17e1:	01 00 	addl	%eax, (%rax)
    17e3:	00 00 	addb	%al, (%rax)
    17e5:	00 00 	addb	%al, (%rax)
    17e7:	00 47 0d 	addb	%al, 13(%rdi)
    17ea:	00 00 	addb	%al, (%rax)
    17ec:	00 00 	addb	%al, (%rax)
    17ee:	00 00 	addb	%al, (%rax)
    17f0:	04 00 	addb	$0, %al
    17f2:	00 00 	addb	%al, (%rax)
    17f4:	26 00 00 	addb	%al, %es:(%rax)
    17f7:	00 fc 	addb	%bh, %ah
    17f9:	ff ff  <unknown>
    17fb:	ff ff  <unknown>
    17fd:	ff ff  <unknown>
    17ff:	ff 4e 0d 	decl	13(%rsi)
    1802:	00 00 	addb	%al, (%rax)
    1804:	00 00 	addb	%al, (%rax)
    1806:	00 00 	addb	%al, (%rax)
    1808:	02 00 	addb	(%rax), %al
    180a:	00 00 	addb	%al, (%rax)
    180c:	04 00 	addb	$0, %al
    180e:	00 00 	addb	%al, (%rax)
    1810:	0c 00 	orb	$0, %al
    1812:	00 00 	addb	%al, (%rax)
    1814:	00 00 	addb	%al, (%rax)
    1816:	00 00 	addb	%al, (%rax)
    1818:	65 0d 00 00 00 00 	orl	$0, %eax
    181e:	00 00 	addb	%al, (%rax)
    1820:	04 00 	addb	$0, %al
    1822:	00 00 	addb	%al, (%rax)
    1824:	2b 00 	subl	(%rax), %eax
    1826:	00 00 	addb	%al, (%rax)
    1828:	fc 	cld
    1829:	ff ff  <unknown>
    182b:	ff ff  <unknown>
    182d:	ff ff  <unknown>
    182f:	ff a7 0d 00 00 00 	jmpq	*13(%rdi)
    1835:	00 00 	addb	%al, (%rax)
    1837:	00 02 	addb	%al, (%rdx)
    1839:	00 00 	addb	%al, (%rax)
    183b:	00 04 00 	addb	%al, (%rax,%rax)
    183e:	00 00 	addb	%al, (%rax)
    1840:	1c 00 	sbbb	$0, %al
    1842:	00 00 	addb	%al, (%rax)
    1844:	00 00 	addb	%al, (%rax)
    1846:	00 00 	addb	%al, (%rax)
    1848:	b2 0d 	movb	$13, %dl
    184a:	00 00 	addb	%al, (%rax)
    184c:	00 00 	addb	%al, (%rax)
    184e:	00 00 	addb	%al, (%rax)
    1850:	02 00 	addb	(%rax), %al
    1852:	00 00 	addb	%al, (%rax)
    1854:	05 00 00 00 8c 	addl	$2348810240, %eax
    1859:	02 00 	addb	(%rax), %al
    185b:	00 00 	addb	%al, (%rax)
    185d:	00 00 	addb	%al, (%rax)
    185f:	00 b9 0d 00 00 00 	addb	%bh, 13(%rcx)
    1865:	00 00 	addb	%al, (%rax)
    1867:	00 2a 	addb	%ch, (%rdx)
    1869:	00 00 	addb	%al, (%rax)
    186b:	00 2c 00 	addb	%ch, (%rax,%rax)
    186e:	00 00 	addb	%al, (%rax)
    1870:	fc 	cld
    1871:	ff ff  <unknown>
    1873:	ff ff  <unknown>
    1875:	ff ff  <unknown>
    1877:	ff c1 	incl	%ecx
    1879:	0d 00 00 00 00 	orl	$0, %eax
    187e:	00 00 	addb	%al, (%rax)
    1880:	04 00 	addb	$0, %al
    1882:	00 00 	addb	%al, (%rax)
    1884:	26 00 00 	addb	%al, %es:(%rax)
    1887:	00 fc 	addb	%bh, %ah
    1889:	ff ff  <unknown>
    188b:	ff ff  <unknown>
    188d:	ff ff  <unknown>
    188f:	ff c8 	decl	%eax
    1891:	0d 00 00 00 00 	orl	$0, %eax
    1896:	00 00 	addb	%al, (%rax)
    1898:	02 00 	addb	(%rax), %al
    189a:	00 00 	addb	%al, (%rax)
    189c:	05 00 00 00 ca 	addl	$3388997632, %eax
    18a1:	02 00 	addb	(%rax), %al
    18a3:	00 00 	addb	%al, (%rax)
    18a5:	00 00 	addb	%al, (%rax)
    18a7:	00 d0 	addb	%dl, %al
    18a9:	0d 00 00 00 00 	orl	$0, %eax
    18ae:	00 00 	addb	%al, (%rax)
    18b0:	04 00 	addb	$0, %al
    18b2:	00 00 	addb	%al, (%rax)
    18b4:	26 00 00 	addb	%al, %es:(%rax)
    18b7:	00 fc 	addb	%bh, %ah
    18b9:	ff ff  <unknown>
    18bb:	ff ff  <unknown>
    18bd:	ff ff  <unknown>
    18bf:	ff da  <unknown>
    18c1:	0d 00 00 00 00 	orl	$0, %eax
    18c6:	00 00 	addb	%al, (%rax)
    18c8:	2a 00 	subb	(%rax), %al
    18ca:	00 00 	addb	%al, (%rax)
    18cc:	28 00 	subb	%al, (%rax)
    18ce:	00 00 	addb	%al, (%rax)
    18d0:	fc 	cld
    18d1:	ff ff  <unknown>
    18d3:	ff ff  <unknown>
    18d5:	ff ff  <unknown>
    18d7:	ff e5 	jmpq	*%rbp
    18d9:	0d 00 00 00 00 	orl	$0, %eax
    18de:	00 00 	addb	%al, (%rax)
    18e0:	04 00 	addb	$0, %al
    18e2:	00 00 	addb	%al, (%rax)
    18e4:	29 00 	subl	%eax, (%rax)
    18e6:	00 00 	addb	%al, (%rax)
    18e8:	fc 	cld
    18e9:	ff ff  <unknown>
    18eb:	ff ff  <unknown>
    18ed:	ff ff  <unknown>
    18ef:	ff ef  <unknown>
    18f1:	0d 00 00 00 00 	orl	$0, %eax
    18f6:	00 00 	addb	%al, (%rax)
    18f8:	04 00 	addb	$0, %al
    18fa:	00 00 	addb	%al, (%rax)
    18fc:	2a 00 	subb	(%rax), %al
    18fe:	00 00 	addb	%al, (%rax)
    1900:	fc 	cld
    1901:	ff ff  <unknown>
    1903:	ff ff  <unknown>
    1905:	ff ff  <unknown>
    1907:	ff f6 	pushq	%rsi
    1909:	0d 00 00 00 00 	orl	$0, %eax
    190e:	00 00 	addb	%al, (%rax)
    1910:	02 00 	addb	(%rax), %al
    1912:	00 00 	addb	%al, (%rax)
    1914:	05 00 00 00 e3 	addl	$3808428032, %eax
    1919:	02 00 	addb	(%rax), %al
    191b:	00 00 	addb	%al, (%rax)
    191d:	00 00 	addb	%al, (%rax)
    191f:	00 fd 	addb	%bh, %ch
    1921:	0d 00 00 00 00 	orl	$0, %eax
    1926:	00 00 	addb	%al, (%rax)
    1928:	2a 00 	subb	(%rax), %al
    192a:	00 00 	addb	%al, (%rax)
    192c:	2c 00 	subb	$0, %al
    192e:	00 00 	addb	%al, (%rax)
    1930:	fc 	cld
    1931:	ff ff  <unknown>
    1933:	ff ff  <unknown>
    1935:	ff ff  <unknown>
    1937:	ff 05 0e 00 00 00 	incl	14(%rip)
    193d:	00 00 	addb	%al, (%rax)
    193f:	00 04 00 	addb	%al, (%rax,%rax)
    1942:	00 00 	addb	%al, (%rax)
    1944:	26 00 00 	addb	%al, %es:(%rax)
    1947:	00 fc 	addb	%bh, %ah
    1949:	ff ff  <unknown>
    194b:	ff ff  <unknown>
    194d:	ff ff  <unknown>
    194f:	ff 0e 	decl	(%rsi)
    1951:	0e  <unknown>
    1952:	00 00 	addb	%al, (%rax)
    1954:	00 00 	addb	%al, (%rax)
    1956:	00 00 	addb	%al, (%rax)
    1958:	02 00 	addb	(%rax), %al
    195a:	00 00 	addb	%al, (%rax)
    195c:	04 00 	addb	$0, %al
    195e:	00 00 	addb	%al, (%rax)
    1960:	1c 00 	sbbb	$0, %al
    1962:	00 00 	addb	%al, (%rax)
    1964:	00 00 	addb	%al, (%rax)
    1966:	00 00 	addb	%al, (%rax)
    1968:	18 0e 	sbbb	%cl, (%rsi)
    196a:	00 00 	addb	%al, (%rax)
    196c:	00 00 	addb	%al, (%rax)
    196e:	00 00 	addb	%al, (%rax)
    1970:	04 00 	addb	$0, %al
    1972:	00 00 	addb	%al, (%rax)
    1974:	27  <unknown>
    1975:	00 00 	addb	%al, (%rax)
    1977:	00 fc 	addb	%bh, %ah
    1979:	ff ff  <unknown>
    197b:	ff ff  <unknown>
    197d:	ff ff  <unknown>
    197f:	ff 1f 	lcalll	*(%rdi)
    1981:	0e  <unknown>
    1982:	00 00 	addb	%al, (%rax)
    1984:	00 00 	addb	%al, (%rax)
    1986:	00 00 	addb	%al, (%rax)
    1988:	02 00 	addb	(%rax), %al
    198a:	00 00 	addb	%al, (%rax)
    198c:	05 00 00 00 ed 	addl	$3976200192, %eax
    1991:	02 00 	addb	(%rax), %al
    1993:	00 00 	addb	%al, (%rax)
    1995:	00 00 	addb	%al, (%rax)
    1997:	00 27 	addb	%ah, (%rdi)
    1999:	0e  <unknown>
    199a:	00 00 	addb	%al, (%rax)
    199c:	00 00 	addb	%al, (%rax)
    199e:	00 00 	addb	%al, (%rax)
    19a0:	04 00 	addb	$0, %al
    19a2:	00 00 	addb	%al, (%rax)
    19a4:	26 00 00 	addb	%al, %es:(%rax)
    19a7:	00 fc 	addb	%bh, %ah
    19a9:	ff ff  <unknown>
    19ab:	ff ff  <unknown>
    19ad:	ff ff  <unknown>
    19af:	ff 31 	pushq	(%rcx)
    19b1:	0e  <unknown>
    19b2:	00 00 	addb	%al, (%rax)
    19b4:	00 00 	addb	%al, (%rax)
    19b6:	00 00 	addb	%al, (%rax)
    19b8:	2a 00 	subb	(%rax), %al
    19ba:	00 00 	addb	%al, (%rax)
    19bc:	28 00 	subb	%al, (%rax)
    19be:	00 00 	addb	%al, (%rax)
    19c0:	fc 	cld
    19c1:	ff ff  <unknown>
    19c3:	ff ff  <unknown>
    19c5:	ff ff  <unknown>
    19c7:	ff 3c 0e  <unknown>
    19ca:	00 00 	addb	%al, (%rax)
    19cc:	00 00 	addb	%al, (%rax)
    19ce:	00 00 	addb	%al, (%rax)
    19d0:	04 00 	addb	$0, %al
    19d2:	00 00 	addb	%al, (%rax)
    19d4:	29 00 	subl	%eax, (%rax)
    19d6:	00 00 	addb	%al, (%rax)
    19d8:	fc 	cld
    19d9:	ff ff  <unknown>
    19db:	ff ff  <unknown>
    19dd:	ff ff  <unknown>
    19df:	ff 62 0e 	jmpq	*14(%rdx)
    19e2:	00 00 	addb	%al, (%rax)
    19e4:	00 00 	addb	%al, (%rax)
    19e6:	00 00 	addb	%al, (%rax)
    19e8:	04 00 	addb	$0, %al
    19ea:	00 00 	addb	%al, (%rax)
    19ec:	2f  <unknown>
    19ed:	00 00 	addb	%al, (%rax)
    19ef:	00 fc 	addb	%bh, %ah
    19f1:	ff ff  <unknown>
    19f3:	ff ff  <unknown>
    19f5:	ff ff  <unknown>
    19f7:	ff 6d 0e 	ljmpl	*14(%rbp)
    19fa:	00 00 	addb	%al, (%rax)
    19fc:	00 00 	addb	%al, (%rax)
    19fe:	00 00 	addb	%al, (%rax)
    1a00:	02 00 	addb	(%rax), %al
    1a02:	00 00 	addb	%al, (%rax)
    1a04:	05 00 00 00 f4 	addl	$4093640704, %eax
    1a09:	02 00 	addb	(%rax), %al
    1a0b:	00 00 	addb	%al, (%rax)
    1a0d:	00 00 	addb	%al, (%rax)
    1a0f:	00 74 0e 00 	addb	%dh, (%rsi,%rcx)
    1a13:	00 00 	addb	%al, (%rax)
    1a15:	00 00 	addb	%al, (%rax)
    1a17:	00 2a 	addb	%ch, (%rdx)
    1a19:	00 00 	addb	%al, (%rax)
    1a1b:	00 2c 00 	addb	%ch, (%rax,%rax)
    1a1e:	00 00 	addb	%al, (%rax)
    1a20:	fc 	cld
    1a21:	ff ff  <unknown>
    1a23:	ff ff  <unknown>
    1a25:	ff ff  <unknown>
    1a27:	ff 7c 0e 00  <unknown>
    1a2b:	00 00 	addb	%al, (%rax)
    1a2d:	00 00 	addb	%al, (%rax)
    1a2f:	00 04 00 	addb	%al, (%rax,%rax)
    1a32:	00 00 	addb	%al, (%rax)
    1a34:	26 00 00 	addb	%al, %es:(%rax)
    1a37:	00 fc 	addb	%bh, %ah
    1a39:	ff ff  <unknown>
    1a3b:	ff ff  <unknown>
    1a3d:	ff ff  <unknown>
    1a3f:	ff 8a 0e 00 00 00 	decl	14(%rdx)
    1a45:	00 00 	addb	%al, (%rax)
    1a47:	00 2a 	addb	%ch, (%rdx)
    1a49:	00 00 	addb	%al, (%rax)
    1a4b:	00 33 	addb	%dh, (%rbx)
    1a4d:	00 00 	addb	%al, (%rax)
    1a4f:	00 fc 	addb	%bh, %ah
    1a51:	ff ff  <unknown>
    1a53:	ff ff  <unknown>
    1a55:	ff ff  <unknown>
    1a57:	ff 92 0e 00 00 00 	callq	*14(%rdx)
    1a5d:	00 00 	addb	%al, (%rax)
    1a5f:	00 04 00 	addb	%al, (%rax,%rax)
    1a62:	00 00 	addb	%al, (%rax)
    1a64:	34 00 	xorb	$0, %al
    1a66:	00 00 	addb	%al, (%rax)
    1a68:	fc 	cld
    1a69:	ff ff  <unknown>
    1a6b:	ff ff  <unknown>
    1a6d:	ff ff  <unknown>
    1a6f:	ff b6 0e 00 00 00 	pushq	14(%rsi)
    1a75:	00 00 	addb	%al, (%rax)
    1a77:	00 04 00 	addb	%al, (%rax,%rax)
    1a7a:	00 00 	addb	%al, (%rax)
    1a7c:	2a 00 	subb	(%rax), %al
    1a7e:	00 00 	addb	%al, (%rax)
    1a80:	fc 	cld
    1a81:	ff ff  <unknown>
    1a83:	ff ff  <unknown>
    1a85:	ff ff  <unknown>
    1a87:	ff bd 0e 00 00 00  <unknown>
    1a8d:	00 00 	addb	%al, (%rax)
    1a8f:	00 02 	addb	%al, (%rdx)
    1a91:	00 00 	addb	%al, (%rax)
    1a93:	00 05 00 00 00 2c 	addb	%al, 738197504(%rip)
    1a99:	03 00 	addl	(%rax), %eax
    1a9b:	00 00 	addb	%al, (%rax)
    1a9d:	00 00 	addb	%al, (%rax)
    1a9f:	00 c4 	addb	%al, %ah
    1aa1:	0e  <unknown>
    1aa2:	00 00 	addb	%al, (%rax)
    1aa4:	00 00 	addb	%al, (%rax)
    1aa6:	00 00 	addb	%al, (%rax)
    1aa8:	2a 00 	subb	(%rax), %al
    1aaa:	00 00 	addb	%al, (%rax)
    1aac:	2c 00 	subb	$0, %al
    1aae:	00 00 	addb	%al, (%rax)
    1ab0:	fc 	cld
    1ab1:	ff ff  <unknown>
    1ab3:	ff ff  <unknown>
    1ab5:	ff ff  <unknown>
    1ab7:	ff cc 	decl	%esp
    1ab9:	0e  <unknown>
    1aba:	00 00 	addb	%al, (%rax)
    1abc:	00 00 	addb	%al, (%rax)
    1abe:	00 00 	addb	%al, (%rax)
    1ac0:	04 00 	addb	$0, %al
    1ac2:	00 00 	addb	%al, (%rax)
    1ac4:	26 00 00 	addb	%al, %es:(%rax)
    1ac7:	00 fc 	addb	%bh, %ah
    1ac9:	ff ff  <unknown>
    1acb:	ff ff  <unknown>
    1acd:	ff ff  <unknown>
    1acf:	ff da  <unknown>
    1ad1:	0e  <unknown>
    1ad2:	00 00 	addb	%al, (%rax)
    1ad4:	00 00 	addb	%al, (%rax)
    1ad6:	00 00 	addb	%al, (%rax)
    1ad8:	2a 00 	subb	(%rax), %al
    1ada:	00 00 	addb	%al, (%rax)
    1adc:	33 00 	xorl	(%rax), %eax
    1ade:	00 00 	addb	%al, (%rax)
    1ae0:	fc 	cld
    1ae1:	ff ff  <unknown>
    1ae3:	ff ff  <unknown>
    1ae5:	ff ff  <unknown>
    1ae7:	ff e2 	jmpq	*%rdx
    1ae9:	0e  <unknown>
    1aea:	00 00 	addb	%al, (%rax)
    1aec:	00 00 	addb	%al, (%rax)
    1aee:	00 00 	addb	%al, (%rax)
    1af0:	04 00 	addb	$0, %al
    1af2:	00 00 	addb	%al, (%rax)
    1af4:	34 00 	xorb	$0, %al
    1af6:	00 00 	addb	%al, (%rax)
    1af8:	fc 	cld
    1af9:	ff ff  <unknown>
    1afb:	ff ff  <unknown>
    1afd:	ff ff  <unknown>
    1aff:	ff f7 	pushq	%rdi
    1b01:	0e  <unknown>
    1b02:	00 00 	addb	%al, (%rax)
    1b04:	00 00 	addb	%al, (%rax)
    1b06:	00 00 	addb	%al, (%rax)
    1b08:	04 00 	addb	$0, %al
    1b0a:	00 00 	addb	%al, (%rax)
    1b0c:	35 00 00 00 fc 	xorl	$4227858432, %eax
    1b11:	ff ff  <unknown>
    1b13:	ff ff  <unknown>
    1b15:	ff ff  <unknown>
    1b17:	ff 13 	callq	*(%rbx)
    1b19:	0f 00 00 	sldtw	(%rax)
    1b1c:	00 00 	addb	%al, (%rax)
    1b1e:	00 00 	addb	%al, (%rax)
    1b20:	2a 00 	subb	(%rax), %al
    1b22:	00 00 	addb	%al, (%rax)
    1b24:	33 00 	xorl	(%rax), %eax
    1b26:	00 00 	addb	%al, (%rax)
    1b28:	fc 	cld
    1b29:	ff ff  <unknown>
    1b2b:	ff ff  <unknown>
    1b2d:	ff ff  <unknown>
    1b2f:	ff 1b 	lcalll	*(%rbx)
    1b31:	0f 00 00 	sldtw	(%rax)
    1b34:	00 00 	addb	%al, (%rax)
    1b36:	00 00 	addb	%al, (%rax)
    1b38:	04 00 	addb	$0, %al
    1b3a:	00 00 	addb	%al, (%rax)
    1b3c:	34 00 	xorb	$0, %al
    1b3e:	00 00 	addb	%al, (%rax)
    1b40:	fc 	cld
    1b41:	ff ff  <unknown>
    1b43:	ff ff  <unknown>
    1b45:	ff ff  <unknown>
    1b47:	ff 24 0f 	jmpq	*(%rdi,%rcx)
    1b4a:	00 00 	addb	%al, (%rax)
    1b4c:	00 00 	addb	%al, (%rax)
    1b4e:	00 00 	addb	%al, (%rax)
    1b50:	2a 00 	subb	(%rax), %al
    1b52:	00 00 	addb	%al, (%rax)
    1b54:	28 00 	subb	%al, (%rax)
    1b56:	00 00 	addb	%al, (%rax)
    1b58:	fc 	cld
    1b59:	ff ff  <unknown>
    1b5b:	ff ff  <unknown>
    1b5d:	ff ff  <unknown>
    1b5f:	ff 2e 	ljmpl	*(%rsi)
    1b61:	0f 00 00 	sldtw	(%rax)
    1b64:	00 00 	addb	%al, (%rax)
    1b66:	00 00 	addb	%al, (%rax)
    1b68:	2a 00 	subb	(%rax), %al
    1b6a:	00 00 	addb	%al, (%rax)
    1b6c:	2c 00 	subb	$0, %al
    1b6e:	00 00 	addb	%al, (%rax)
    1b70:	fc 	cld
    1b71:	ff ff  <unknown>
    1b73:	ff ff  <unknown>
    1b75:	ff ff  <unknown>
    1b77:	ff 36 	pushq	(%rsi)
    1b79:	0f 00 00 	sldtw	(%rax)
    1b7c:	00 00 	addb	%al, (%rax)
    1b7e:	00 00 	addb	%al, (%rax)
    1b80:	04 00 	addb	$0, %al
    1b82:	00 00 	addb	%al, (%rax)
    1b84:	29 00 	subl	%eax, (%rax)
    1b86:	00 00 	addb	%al, (%rax)
    1b88:	fc 	cld
    1b89:	ff ff  <unknown>
    1b8b:	ff ff  <unknown>
    1b8d:	ff ff  <unknown>
    1b8f:	ff 5d 0f 	lcalll	*15(%rbp)
    1b92:	00 00 	addb	%al, (%rax)
    1b94:	00 00 	addb	%al, (%rax)
    1b96:	00 00 	addb	%al, (%rax)
    1b98:	02 00 	addb	(%rax), %al
    1b9a:	00 00 	addb	%al, (%rax)
    1b9c:	04 00 	addb	$0, %al
    1b9e:	00 00 	addb	%al, (%rax)
    1ba0:	fc 	cld
    1ba1:	ff ff  <unknown>
    1ba3:	ff ff  <unknown>
    1ba5:	ff ff  <unknown>
    1ba7:	ff 62 0f 	jmpq	*15(%rdx)
    1baa:	00 00 	addb	%al, (%rax)
    1bac:	00 00 	addb	%al, (%rax)
    1bae:	00 00 	addb	%al, (%rax)
    1bb0:	04 00 	addb	$0, %al
    1bb2:	00 00 	addb	%al, (%rax)
    1bb4:	37  <unknown>
    1bb5:	00 00 	addb	%al, (%rax)
    1bb7:	00 fc 	addb	%bh, %ah
    1bb9:	ff ff  <unknown>
    1bbb:	ff ff  <unknown>
    1bbd:	ff ff  <unknown>
    1bbf:	ff 69 0f 	ljmpl	*15(%rcx)
    1bc2:	00 00 	addb	%al, (%rax)
    1bc4:	00 00 	addb	%al, (%rax)
    1bc6:	00 00 	addb	%al, (%rax)
    1bc8:	02 00 	addb	(%rax), %al
    1bca:	00 00 	addb	%al, (%rax)
    1bcc:	38 00 	cmpb	%al, (%rax)
    1bce:	00 00 	addb	%al, (%rax)
    1bd0:	fc 	cld
    1bd1:	ff ff  <unknown>
    1bd3:	ff ff  <unknown>
    1bd5:	ff ff  <unknown>
    1bd7:	ff 70 0f 	pushq	15(%rax)
    1bda:	00 00 	addb	%al, (%rax)
    1bdc:	00 00 	addb	%al, (%rax)
    1bde:	00 00 	addb	%al, (%rax)
    1be0:	02 00 	addb	(%rax), %al
    1be2:	00 00 	addb	%al, (%rax)
    1be4:	04 00 	addb	$0, %al
    1be6:	00 00 	addb	%al, (%rax)
    1be8:	fc 	cld
    1be9:	ff ff  <unknown>
    1beb:	ff ff  <unknown>
    1bed:	ff ff  <unknown>
    1bef:	ff 77 0f 	pushq	15(%rdi)
    1bf2:	00 00 	addb	%al, (%rax)
    1bf4:	00 00 	addb	%al, (%rax)
    1bf6:	00 00 	addb	%al, (%rax)
    1bf8:	2a 00 	subb	(%rax), %al
    1bfa:	00 00 	addb	%al, (%rax)
    1bfc:	39 00 	cmpl	%eax, (%rax)
    1bfe:	00 00 	addb	%al, (%rax)
    1c00:	fc 	cld
    1c01:	ff ff  <unknown>
    1c03:	ff ff  <unknown>
    1c05:	ff ff  <unknown>
    1c07:	ff 7f 0f  <unknown>
    1c0a:	00 00 	addb	%al, (%rax)
    1c0c:	00 00 	addb	%al, (%rax)
    1c0e:	00 00 	addb	%al, (%rax)
    1c10:	04 00 	addb	$0, %al
    1c12:	00 00 	addb	%al, (%rax)
    1c14:	3a 00 	cmpb	(%rax), %al
    1c16:	00 00 	addb	%al, (%rax)
    1c18:	fc 	cld
    1c19:	ff ff  <unknown>
    1c1b:	ff ff  <unknown>
    1c1d:	ff ff  <unknown>
    1c1f:	ff  <unknown>
Disassembly of section .data:
_ZL9MaxFehler:
       0:	bb bd d7 d9 df 	movl	$3755595709, %ebx
       5:	7c db 	jl	-37 <_ZL9MaxFehler+0xffffffffffffffe2>
       7:	3d  <unknown>
Disassembly of section .bss:
_ZStL8__ioinit:
...

_ZL2n1:
...

_ZL2n2:
...

_ZL17AnzahlNullStellen:
...

_ZL6IsComp:
...

_ZL4_Bsp:
...
Disassembly of section .rodata:
_ZStL19piecewise_construct:
       0:	00 00 	addb	%al, (%rax)

_ZStL13allocator_arg:
       1:	00 00 	addb	%al, (%rax)

_ZStL6ignore:
       2:	00 00 	addb	%al, (%rax)

Unendlich:
       4:	ff ff  <unknown>
       6:	ff ff  <unknown>

AnzahlBeispiele:
       8:	0d 00 00 00 46 	orl	$1174405120, %eax
       d:	61  <unknown>
       e:	6c 	insb	%dx, %es:(%rdi)
       f:	73 63 	jae	99 <AnzahlBeispiele+0x6c>
      11:	68 65 20 42 65 	pushq	$1698832485
      16:	69 73 70 69 65 6c 6e 	imull	$1852597609, 112(%rbx), %esi
      1d:	75 6d 	jne	109 <AnzahlBeispiele+0x84>
      1f:	6d 	insl	%dx, %es:(%rdi)
      20:	65 72 3a 	jb	58 <AnzahlBeispiele+0x55>
      23:	20 00 	andb	%al, (%rax)
      25:	00 00 	addb	%al, (%rax)
      27:	00 21 	addb	%ah, (%rcx)
      29:	0a 45 73 	orb	115(%rbp), %al
      2c:	20 67 69 	andb	%ah, 105(%rdi)
      2f:	62  <unknown>
      30:	74 20 	je	32 <AnzahlBeispiele+0x4a>
      32:	6e 	outsb	(%rsi), %dx
      33:	75 72 	jne	114 <AnzahlBeispiele+0x9f>
      35:	20 64 69 65 	andb	%ah, 101(%rcx,%rbp,2)
      39:	20 42 65 	andb	%al, 101(%rdx)
      3c:	69 73 70 69 65 6c 65 	imull	$1701602665, 112(%rbx), %esi
      43:	20 31 	andb	%dh, (%rcx)
      45:	20 62 69 	andb	%ah, 105(%rdx)
      48:	73 20 	jae	32 <AnzahlBeispiele+0x62>
      4a:	41 6e 	outsb	(%rsi), %dx
      4c:	7a 61 	jp	97 <AnzahlBeispiele+0xa7>
      4e:	68 6c 42 65 69 	pushq	$1768243820
      53:	73 70 	jae	112 <AnzahlBeispiele+0xbd>
      55:	69 65 6c 65 20 3d 20 	imull	$540876901, 108(%rbp), %esp
      5c:	00 2e 	addb	%ch, (%rsi)
      5e:	20 50 72 	andb	%dl, 114(%rax)
      61:	6f 	outsl	(%rsi), %dx
      62:	67 72 61 	jb	97 <AnzahlBeispiele+0xbe>
      65:	6d 	insl	%dx, %es:(%rdi)
      66:	6d 	insl	%dx, %es:(%rdi)
      67:	61  <unknown>
      68:	62  <unknown>
      69:	62 72 75 63 68  <unknown>
      6e:	21 00 	andl	%eax, (%rax)
      70:	00 00 	addb	%al, (%rax)
      72:	00 00 	addb	%al, (%rax)
      74:	00 00 	addb	%al, (%rax)
      76:	00 00 	addb	%al, (%rax)
      78:	00 00 	addb	%al, (%rax)
      7a:	00 00 	addb	%al, (%rax)
      7c:	00 00 	addb	%al, (%rax)
      7e:	00 00 	addb	%al, (%rax)
      80:	00 00 	addb	%al, (%rax)
      82:	00 00 	addb	%al, (%rax)
      84:	00 00 	addb	%al, (%rax)
      86:	00 00 	addb	%al, (%rax)
      88:	00 00 	addb	%al, (%rax)
      8a:	00 00 	addb	%al, (%rax)
      8c:	00 00 	addb	%al, (%rax)
      8e:	00 00 	addb	%al, (%rax)
      90:	00 00 	addb	%al, (%rax)
      92:	00 00 	addb	%al, (%rax)
      94:	00 00 	addb	%al, (%rax)
      96:	00 00 	addb	%al, (%rax)
      98:	00 00 	addb	%al, (%rax)
      9a:	00 00 	addb	%al, (%rax)
      9c:	00 00 	addb	%al, (%rax)
      9e:	00 00 	addb	%al, (%rax)
      a0:	00 00 	addb	%al, (%rax)
      a2:	00 00 	addb	%al, (%rax)
      a4:	00 00 	addb	%al, (%rax)
      a6:	00 00 	addb	%al, (%rax)
      a8:	20 20 	andb	%ah, (%rax)
      aa:	20 20 	andb	%ah, (%rax)
      ac:	52 	pushq	%rdx
      ad:	65 6c 	insb	%dx, %es:(%rdi)
      af:	61  <unknown>
      b0:	74 69 	je	105 <AnzahlBeispiele+0x113>
      b2:	76 65 	jbe	101 <AnzahlBeispiele+0x111>
      b4:	72 20 	jb	32 <AnzahlBeispiele+0xce>
      b6:	46 65 	gs
      b8:	68 6c 65 72 3a 	pushq	$980575596
      bd:	20 20 	andb	%ah, (%rax)
      bf:	20 20 	andb	%ah, (%rax)
      c1:	20 00 	andb	%al, (%rax)
      c3:	20 20 	andb	%ah, (%rax)
      c5:	20 20 	andb	%ah, (%rax)
      c7:	41 62  <unknown>
      c9:	73 6f 	jae	111 <AnzahlBeispiele+0x132>
      cb:	6c 	insb	%dx, %es:(%rdi)
      cc:	75 74 	jne	116 <AnzahlBeispiele+0x13a>
      ce:	65 72 20 	jb	32 <AnzahlBeispiele+0xe9>
      d1:	46 65 	gs
      d3:	68 6c 65 72 3a 	pushq	$980575596
      d8:	20 20 	andb	%ah, (%rax)
      da:	20 20 	andb	%ah, (%rax)
      dc:	20 00 	andb	%al, (%rax)
      de:	20 20 	andb	%ah, (%rax)
      e0:	20 20 	andb	%ah, (%rax)
      e2:	20 4f 4b 	andb	%cl, 75(%rdi)
      e5:	21 00 	andl	%eax, (%rax)
      e7:	20 20 	andb	%ah, (%rax)
      e9:	20 20 	andb	%ah, (%rax)
      eb:	20 5a 75 	andb	%bl, 117(%rdx)
      ee:	20 75 6e 	andb	%dh, 110(%rbp)
      f1:	67 65 6e 	outsb	%gs:(%esi), %dx
      f4:	61  <unknown>
      f5:	75 21 	jne	33 <AnzahlBeispiele+0x110>
      f7:	00 20 	addb	%ah, (%rax)
      f9:	20 41 6e 	andb	%al, 110(%rcx)
      fc:	7a 61 	jp	97 <AnzahlBeispiele+0x157>
      fe:	68 6c 20 64 65 	pushq	$1701060716
     103:	72 20 	jb	32 <AnzahlBeispiele+0x11d>
     105:	4e 75 6c 	jne	108 <AnzahlBeispiele+0x16c>
     108:	6c 	insb	%dx, %es:(%rdi)
     109:	73 74 	jae	116 <AnzahlBeispiele+0x177>
     10b:	65 6c 	insb	%dx, %es:(%rdi)
     10d:	6c 	insb	%dx, %es:(%rdi)
     10e:	65 6e 	outsb	%gs:(%rsi), %dx
     110:	3a 20 	cmpb	(%rax), %ah
     112:	00 55 6e 	addb	%dl, 110(%rbp)
     115:	65 6e 	outsb	%gs:(%rsi), %dx
     117:	64 6c 	insb	%dx, %es:(%rdi)
     119:	69 63 68 00 20 20 20 	imull	$538976256, 104(%rbx), %esp
     120:	20 20 	andb	%ah, (%rax)
     122:	20 20 	andb	%ah, (%rax)
     124:	20 46 65 	andb	%al, 101(%rsi)
     127:	68 6c 65 72 21 	pushq	$561145196
     12c:	00 20 	addb	%ah, (%rax)
     12e:	20 20 	andb	%ah, (%rax)
     130:	20 20 	andb	%ah, (%rax)
     132:	20 20 	andb	%ah, (%rax)
     134:	20 4f 4b 	andb	%cl, 75(%rdi)
     137:	21 00 	andl	%eax, (%rax)
     139:	20 20 	andb	%ah, (%rax)
     13b:	52 	pushq	%rdx
     13c:	65 65 6c 	insb	%dx, %es:(%rdi)
     13f:	6c 	insb	%dx, %es:(%rdi)
     140:	20 6f 64 	andb	%ch, 100(%rdi)
     143:	65 72 20 	jb	32 <AnzahlBeispiele+0x15e>
     146:	6b 6f 6d 70 	imull	$112, 109(%rdi), %ebp
     14a:	6c 	insb	%dx, %es:(%rdi)
     14b:	65 78 3a 	js	58 <AnzahlBeispiele+0x180>
     14e:	20 20 	andb	%ah, (%rax)
     150:	20 20 	andb	%ah, (%rax)
     152:	20 00 	andb	%al, (%rax)
     154:	6b 6f 6d 70 	imull	$112, 109(%rdi), %ebp
     158:	6c 	insb	%dx, %es:(%rdi)
     159:	65 78 00 	js	0 <AnzahlBeispiele+0x154>
     15c:	72 65 	jb	101 <AnzahlBeispiele+0x1bb>
     15e:	65 6c 	insb	%dx, %es:(%rdi)
     160:	6c 	insb	%dx, %es:(%rdi)
     161:	20 20 	andb	%ah, (%rax)
     163:	00 20 	addb	%ah, (%rax)
     165:	20 20 	andb	%ah, (%rax)
     167:	20 20 	andb	%ah, (%rax)
     169:	20 20 	andb	%ah, (%rax)
     16b:	20 20 	andb	%ah, (%rax)
     16d:	20 46 65 	andb	%al, 101(%rsi)
     170:	68 6c 65 72 21 	pushq	$561145196
     175:	00 20 	addb	%ah, (%rax)
     177:	20 20 	andb	%ah, (%rax)
     179:	20 20 	andb	%ah, (%rax)
     17b:	20 20 	andb	%ah, (%rax)
     17d:	20 20 	andb	%ah, (%rax)
     17f:	20 4f 4b 	andb	%cl, 75(%rdi)
     182:	21 00 	andl	%eax, (%rax)
     184:	20 20 	andb	%ah, (%rax)
     186:	4e 75 6c 	jne	108 <AnzahlBeispiele+0x1ed>
     189:	6c 	insb	%dx, %es:(%rdi)
     18a:	73 74 	jae	116 <AnzahlBeispiele+0x1f8>
     18c:	65 6c 	insb	%dx, %es:(%rdi)
     18e:	6c 	insb	%dx, %es:(%rdi)
     18f:	65 3a 20 	cmpb	%gs:(%rax), %ah
     192:	20 20 	andb	%ah, (%rax)
     194:	20 20 	andb	%ah, (%rax)
     196:	20 20 	andb	%ah, (%rax)
     198:	20 20 	andb	%ah, (%rax)
     19a:	20 20 	andb	%ah, (%rax)
     19c:	20 20 	andb	%ah, (%rax)
     19e:	00 0a 	addb	%cl, (%rdx)
     1a0:	00 20 	addb	%ah, (%rax)
     1a2:	20 4e 75 	andb	%cl, 117(%rsi)
     1a5:	6c 	insb	%dx, %es:(%rdi)
     1a6:	6c 	insb	%dx, %es:(%rdi)
     1a7:	73 74 	jae	116 <AnzahlBeispiele+0x215>
     1a9:	65 6c 	insb	%dx, %es:(%rdi)
     1ab:	6c 	insb	%dx, %es:(%rdi)
     1ac:	65 6e 	outsb	%gs:(%rsi), %dx
     1ae:	3a 20 	cmpb	(%rax), %ah
     1b0:	20 20 	andb	%ah, (%rax)
     1b2:	20 20 	andb	%ah, (%rax)
     1b4:	20 20 	andb	%ah, (%rax)
     1b6:	20 20 	andb	%ah, (%rax)
     1b8:	20 20 	andb	%ah, (%rax)
     1ba:	20 00 	andb	%al, (%rax)
     1bc:	20 2b 	andb	%ch, (%rbx)
     1be:	2f  <unknown>
     1bf:	2d 20 00 69 0a 	subl	$174653472, %eax
     1c4:	00 00 	addb	%al, (%rax)
     1c6:	00 00 	addb	%al, (%rax)
     1c8:	0a 44 65 72 	orb	114(%rbp), %al
     1cc:	20 49 6d 	andb	%cl, 109(%rcx)
     1cf:	61  <unknown>
     1d0:	67 69 6e 61 65 72 74 65 	imull	$1702130277, 97(%esi), %ebp
     1d8:	69 6c 20 69 73 74 20 6e 	imull	$1847620723, 105(%rax), %ebp
     1e0:	65 67 61  <unknown>
     1e3:	74 69 	je	105 <AnzahlBeispiele+0x246>
     1e5:	76 21 	jbe	33 <AnzahlBeispiele+0x200>
     1e7:	20 46 65 	andb	%al, 101(%rsi)
     1ea:	68 6c 65 72 21 	pushq	$561145196
     1ef:	00 20 	addb	%ah, (%rax)
     1f1:	20 45 72 	andb	%al, 114(%rbp)
     1f4:	73 74 	jae	116 <AnzahlBeispiele+0x262>
     1f6:	65 20 4e 75 	andb	%cl, %gs:117(%rsi)
     1fa:	6c 	insb	%dx, %es:(%rdi)
     1fb:	6c 	insb	%dx, %es:(%rdi)
     1fc:	73 74 	jae	116 <AnzahlBeispiele+0x26a>
     1fe:	65 6c 	insb	%dx, %es:(%rdi)
     200:	6c 	insb	%dx, %es:(%rdi)
     201:	65 3a 20 	cmpb	%gs:(%rax), %ah
     204:	20 20 	andb	%ah, (%rax)
     206:	20 20 	andb	%ah, (%rax)
     208:	20 20 	andb	%ah, (%rax)
     20a:	00 20 	addb	%ah, (%rax)
     20c:	20 5a 77 	andb	%bl, 119(%rdx)
     20f:	65 69 74 65 20 4e 75 6c 6c 	imull	$1819047246, %gs:32(%rbp), %esi
     218:	73 74 	jae	116 <AnzahlBeispiele+0x286>
     21a:	65 6c 	insb	%dx, %es:(%rdi)
     21c:	6c 	insb	%dx, %es:(%rdi)
     21d:	65 3a 20 	cmpb	%gs:(%rax), %ah
     220:	20 20 	andb	%ah, (%rax)
     222:	20 20 	andb	%ah, (%rax)
     224:	20 20 	andb	%ah, (%rax)
     226:	00 00 	addb	%al, (%rax)
     228:	0a 44 69 65 	orb	101(%rcx,%rbp,2), %al
     22c:	20 62 65 	andb	%ah, 101(%rdx)
     22f:	74 72 	je	114 <AnzahlBeispiele+0x29b>
     231:	61  <unknown>
     232:	67 73 67 	jae	103 <AnzahlBeispiele+0x294>
     235:	72 6f 	jb	111 <AnzahlBeispiele+0x29e>
     237:	65 73 73 	jae	115 <AnzahlBeispiele+0x2a5>
     23a:	65 72 65 	jb	101 <AnzahlBeispiele+0x29a>
     23d:	20 4e 75 	andb	%cl, 117(%rsi)
     240:	6c 	insb	%dx, %es:(%rdi)
     241:	6c 	insb	%dx, %es:(%rdi)
     242:	73 74 	jae	116 <AnzahlBeispiele+0x2b0>
     244:	65 6c 	insb	%dx, %es:(%rdi)
     246:	6c 	insb	%dx, %es:(%rdi)
     247:	65 20 73 74 	andb	%dh, %gs:116(%rbx)
     24b:	65 68 74 20 65 72 	pushq	$1919230068
     251:	73 74 	jae	116 <AnzahlBeispiele+0x2bf>
     253:	20 61 6e 	andb	%ah, 110(%rcx)
     256:	20 7a 77 	andb	%bh, 119(%rdx)
     259:	65 69 74 65 72 20 53 74 65 	imull	$1702122272, %gs:114(%rbp), %esi
     262:	6c 	insb	%dx, %es:(%rdi)
     263:	6c 	insb	%dx, %es:(%rdi)
     264:	65 21 20 	andl	%esp, %gs:(%rax)
     267:	00 46 65 	addb	%al, 101(%rsi)
     26a:	68 6c 65 72 21 	pushq	$561145196
     26f:	00 20 	addb	%ah, (%rax)
     271:	20 5a 77 	andb	%bl, 119(%rdx)
     274:	65 69 74 65 20 4e 75 6c 6c 	imull	$1819047246, %gs:32(%rbp), %esi
     27d:	73 74 	jae	116 <AnzahlBeispiele+0x2eb>
     27f:	65 6c 	insb	%dx, %es:(%rdi)
     281:	6c 	insb	%dx, %es:(%rdi)
     282:	65 3a 20 	cmpb	%gs:(%rax), %ah
     285:	20 20 	andb	%ah, (%rax)
     287:	20 20 	andb	%ah, (%rax)
     289:	20 00 	andb	%al, (%rax)
     28b:	00 00 	addb	%al, (%rax)
     28d:	00 00 	addb	%al, (%rax)
     28f:	00 5a 75 	addb	%bl, 117(%rdx)
     292:	20 41 6e 	andb	%al, 110(%rcx)
     295:	66 61  <unknown>
     297:	6e 	outsb	(%rsi), %dx
     298:	67 20 64 65 73 	andb	%ah, 115(%ebp)
     29d:	20 50 72 	andb	%dl, 114(%rax)
     2a0:	6f 	outsl	(%rsi), %dx
     2a1:	67 72 61 	jb	97 <AnzahlBeispiele+0x2fd>
     2a4:	6d 	insl	%dx, %es:(%rdi)
     2a5:	6d 	insl	%dx, %es:(%rdi)
     2a6:	73 20 	jae	32 <AnzahlBeispiele+0x2c0>
     2a8:	6d 	insl	%dx, %es:(%rdi)
     2a9:	75 73 	jne	115 <AnzahlBeispiele+0x316>
     2ab:	73 20 	jae	32 <AnzahlBeispiele+0x2c5>
     2ad:	64 69 65 20 46 75 6e 6b 	imull	$1802401094, %fs:32(%rbp), %esp
     2b5:	74 69 	je	105 <AnzahlBeispiele+0x318>
     2b7:	6f 	outsl	(%rsi), %dx
     2b8:	6e 	outsb	(%rsi), %dx
     2b9:	20 27 	andb	%ah, (%rdi)
     2bb:	53 	pushq	%rbx
     2bc:	74 61 	je	97 <AnzahlBeispiele+0x317>
     2be:	72 74 	jb	116 <AnzahlBeispiele+0x32c>
     2c0:	27  <unknown>
     2c1:	20 61 75 	andb	%ah, 117(%rcx)
     2c4:	66 67 65 72 75 	jb	117 <AnzahlBeispiele+0x336>
     2c9:	66 65 6e 	outsb	%gs:(%rsi), %dx
     2cc:	20 00 	andb	%al, (%rax)
     2ce:	77 65 	ja	101 <AnzahlBeispiele+0x32d>
     2d0:	72 64 	jb	100 <AnzahlBeispiele+0x32e>
     2d2:	65 6e 	outsb	%gs:(%rsi), %dx
     2d4:	2e 0a 50 72 	orb	%cs:114(%rax), %dl
     2d8:	6f 	outsl	(%rsi), %dx
     2d9:	67 72 61 	jb	97 <AnzahlBeispiele+0x335>
     2dc:	6d 	insl	%dx, %es:(%rdi)
     2dd:	6d 	insl	%dx, %es:(%rdi)
     2de:	61  <unknown>
     2df:	62  <unknown>
     2e0:	62 72 75 63 68  <unknown>
     2e5:	21 00 	andl	%eax, (%rax)
     2e7:	42 65 	gs
     2e9:	69 73 70 69 65 6c 20 	imull	$543974761, 112(%rbx), %esi
     2f0:	00 3a 	addb	%bh, (%rdx)
     2f2:	00 00 	addb	%al, (%rax)
     2f4:	00 00 	addb	%al, (%rax)
     2f6:	00 00 	addb	%al, (%rax)
     2f8:	0a 57 6f 	orb	111(%rdi), %dl
     2fb:	6c 	insb	%dx, %es:(%rdi)
     2fc:	6c 	insb	%dx, %es:(%rdi)
     2fd:	65 6e 	outsb	%gs:(%rsi), %dx
     2ff:	20 53 69 	andb	%dl, 105(%rbx)
     302:	65 20 66 6f 	andb	%ah, %gs:111(%rsi)
     306:	72 74 	jb	116 <AnzahlBeispiele+0x374>
     308:	66 61  <unknown>
     30a:	68 72 65 6e 20 	pushq	$544105842
     30f:	6f 	outsl	(%rsi), %dx
     310:	64 65 72 20 	jb	32 <AnzahlBeispiele+0x32c>
     314:	61  <unknown>
     315:	62  <unknown>
     316:	62 72 65 63 68  <unknown>
     31b:	65 6e 	outsb	%gs:(%rsi), %dx
     31d:	20 5b 66 	andb	%bl, 102(%rbx)
     320:	2f  <unknown>
     321:	61  <unknown>
     322:	5d 	popq	%rbp
     323:	20 3c 45 6e 74 65 72 	andb	%bh, 1919251566(,%rax,2)
     32a:	3e 20 3f 	andb	%bh, %ds:(%rdi)
     32d:	00 00 	addb	%al, (%rax)
     32f:	00 0a 	addb	%cl, (%rdx)
     331:	44 72 75 	jb	117 <AnzahlBeispiele+0x3a1>
     334:	65 63  <unknown>
     336:	6b 65 6e 20 	imull	$32, 110(%rbp), %esp
     33a:	53 	pushq	%rbx
     33b:	69 65 20 62 69 74 74 	imull	$1953786210, 32(%rbp), %esp
     342:	65 20 3c 45 6e 74 65 72 	andb	%bh, %gs:1919251566(,%rax,2)
     34a:	3e 2c 20 	subb	$32, %al
     34d:	75 6d 	jne	109 <AnzahlBeispiele+0x3b4>
     34f:	20 66 6f 	andb	%ah, 111(%rsi)
     352:	72 74 	jb	116 <AnzahlBeispiele+0x3c0>
     354:	7a 75 	jp	117 <AnzahlBeispiele+0x3c3>
     356:	66 61  <unknown>
     358:	68 72 65 6e 00 	pushq	$7234930
     35d:	00 00 	addb	%al, (%rax)
     35f:	00 9a 99 99 99 99 	addb	%bl, -1717986919(%rdx)
     365:	99 	cltd
     366:	f1  <unknown>
     367:	3f  <unknown>
     368:	66 66 66 66 66 66 06  <unknown>
     36f:	40 00 00 	addb	%al, (%rax)
     372:	00 00 	addb	%al, (%rax)
     374:	00 00 	addb	%al, (%rax)
     376:	00 80 00 00 00 00 	addb	%al, (%rax)
     37c:	00 00 	addb	%al, (%rax)
     37e:	00 00 	addb	%al, (%rax)
     380:	2a 11 	subb	(%rcx), %dl
     382:	0f a3 a9 bf 48 41 42 	btl	%ebp, 1111574719(%rcx)
     389:	ac 	lodsb	(%rsi), %al
     38a:	90 	nop
     38b:	9b 	wait
     38c:	6d 	insl	%dx, %es:(%rdi)
     38d:	11 c2 	adcl	%eax, %edx
     38f:	3e cd cc 	int	$204
     392:	cc 	int3
     393:	cc 	int3
     394:	cc 	int3
     395:	cc 	int3
     396:	f4 	hlt
     397:	3f  <unknown>
     398:	9b 	wait
     399:	2b a1 86 9b 84 06 	subl	109353862(%rcx), %esp
     39f:	3d 2a 2f 64 7a 	cmpl	$2053386026, %eax
     3a4:	68 e0 b1 65 80 	pushq	$-2140818976
     3a9:	dc c1 	fadd	%st(0), %st(1)
     3ab:	4b 5d 	popq	%r13
     3ad:	a2 69 54 00 00 00 00 00 00 	movabsb	%al, 21609
     3b6:	f8 	clc
     3b7:	3f  <unknown>
     3b8:	00 00 	addb	%al, (%rax)
     3ba:	00 00 	addb	%al, (%rax)
     3bc:	00 00 	addb	%al, (%rax)
     3be:	08 c0 	orb	%al, %al
     3c0:	00 00 	addb	%al, (%rax)
     3c2:	00 00 	addb	%al, (%rax)
     3c4:	00 00 	addb	%al, (%rax)
     3c6:	1e  <unknown>
     3c7:	40 00 00 	addb	%al, (%rax)
     3ca:	00 00 	addb	%al, (%rax)
     3cc:	00 00 	addb	%al, (%rax)
     3ce:	f0 	lock
     3cf:	3f  <unknown>
     3d0:	00 00 	addb	%al, (%rax)
     3d2:	00 00 	addb	%al, (%rax)
     3d4:	00 00 	addb	%al, (%rax)
     3d6:	00 40 00 	addb	%al, (%rax)
     3d9:	00 00 	addb	%al, (%rax)
     3db:	00 00 	addb	%al, (%rax)
     3dd:	00 1c 40 	addb	%bl, (%rax,%rax,2)
     3e0:	00 00 	addb	%al, (%rax)
     3e2:	00 00 	addb	%al, (%rax)
     3e4:	00 00 	addb	%al, (%rax)
     3e6:	35 40 00 00 00 	xorl	$64, %eax
     3eb:	00 00 	addb	%al, (%rax)
     3ed:	00 0c 40 	addb	%cl, (%rax,%rax,2)
     3f0:	00 00 	addb	%al, (%rax)
     3f2:	00 00 	addb	%al, (%rax)
     3f4:	00 00 	addb	%al, (%rax)
     3f6:	2c c0 	subb	$-64, %al
     3f8:	00 00 	addb	%al, (%rax)
     3fa:	00 00 	addb	%al, (%rax)
     3fc:	00 00 	addb	%al, (%rax)
     3fe:	00 c0 	addb	%al, %al
     400:	00 00 	addb	%al, (%rax)
     402:	00 00 	addb	%al, (%rax)
     404:	00 00 	addb	%al, (%rax)
     406:	32 40 00 	xorb	(%rax), %al
     409:	00 00 	addb	%al, (%rax)
     40b:	00 00 	addb	%al, (%rax)
     40d:	00 08 	addb	%cl, (%rax)
     40f:	40 66 	data16
     411:	66 66 66 66 66 e6 3f 	outb	%al, $63
     418:	dd 15 22 74 29 f9 	fstl	-114723806(%rip)
     41e:	73 1b 	jae	27 <AnzahlBeispiele+0x433>
     420:	52 	pushq	%rdx
     421:	8f 5f 18  <unknown>
     424:	44 63  <unknown>
     426:	41 d8 bb 8b 17 9e 0b 	fdivrs	194910091(%r11)
     42d:	a4 	movsb	(%rsi), %es:(%rdi)
     42e:	2c 1a 	subb	$26, %al
     430:	52 	pushq	%rdx
     431:	8f 5f 18  <unknown>
     434:	44 63  <unknown>
     436:	41 58 	popq	%r8
     438:	00 00 	addb	%al, (%rax)
     43a:	00 00 	addb	%al, (%rax)
     43c:	00 00 	addb	%al, (%rax)
     43e:	14 40 	adcb	$64, %al
     440:	ff ff  <unknown>
     442:	ff ff  <unknown>
     444:	ff ff  <unknown>
     446:	ff 7f 00  <unknown>
     449:	00 00 	addb	%al, (%rax)
     44b:	00 00 	addb	%al, (%rax)
     44d:	00 00 	addb	%al, (%rax)
     44f:	00  <unknown>
Disassembly of section .rela.rodata:
.rela.rodata:
       0:	70 00 	jo	0 <.rela.rodata+0x2>
       2:	00 00 	addb	%al, (%rax)
       4:	00 00 	addb	%al, (%rax)
       6:	00 00 	addb	%al, (%rax)
       8:	02 00 	addb	(%rax), %al
       a:	00 00 	addb	%al, (%rax)
       c:	02 00 	addb	(%rax), %al
       e:	00 00 	addb	%al, (%rax)
      10:	b0 05 	movb	$5, %al
      12:	00 00 	addb	%al, (%rax)
      14:	00 00 	addb	%al, (%rax)
      16:	00 00 	addb	%al, (%rax)
      18:	74 00 	je	0 <.rela.rodata+0x1a>
      1a:	00 00 	addb	%al, (%rax)
      1c:	00 00 	addb	%al, (%rax)
      1e:	00 00 	addb	%al, (%rax)
      20:	02 00 	addb	(%rax), %al
      22:	00 00 	addb	%al, (%rax)
      24:	02 00 	addb	(%rax), %al
      26:	00 00 	addb	%al, (%rax)
      28:	5c 	popq	%rsp
      29:	00 00 	addb	%al, (%rax)
      2b:	00 00 	addb	%al, (%rax)
      2d:	00 00 	addb	%al, (%rax)
      2f:	00 78 00 	addb	%bh, (%rax)
      32:	00 00 	addb	%al, (%rax)
      34:	00 00 	addb	%al, (%rax)
      36:	00 00 	addb	%al, (%rax)
      38:	02 00 	addb	(%rax), %al
      3a:	00 00 	addb	%al, (%rax)
      3c:	02 00 	addb	(%rax), %al
      3e:	00 00 	addb	%al, (%rax)
      40:	f7 00 00 00 00 00 	testl	$0, (%rax)
      46:	00 00 	addb	%al, (%rax)
      48:	7c 00 	jl	0 <.rela.rodata+0x4a>
      4a:	00 00 	addb	%al, (%rax)
      4c:	00 00 	addb	%al, (%rax)
      4e:	00 00 	addb	%al, (%rax)
      50:	02 00 	addb	(%rax), %al
      52:	00 00 	addb	%al, (%rax)
      54:	02 00 	addb	(%rax), %al
      56:	00 00 	addb	%al, (%rax)
      58:	96 	xchgl	%esi, %eax
      59:	01 00 	addl	%eax, (%rax)
      5b:	00 00 	addb	%al, (%rax)
      5d:	00 00 	addb	%al, (%rax)
      5f:	00 80 00 00 00 00 	addb	%al, (%rax)
      65:	00 00 	addb	%al, (%rax)
      67:	00 02 	addb	%al, (%rdx)
      69:	00 00 	addb	%al, (%rax)
      6b:	00 02 	addb	%al, (%rdx)
      6d:	00 00 	addb	%al, (%rax)
      6f:	00 d1 	addb	%dl, %cl
      71:	01 00 	addl	%eax, (%rax)
      73:	00 00 	addb	%al, (%rax)
      75:	00 00 	addb	%al, (%rax)
      77:	00 84 00 00 00 00 00 	addb	%al, (%rax,%rax)
      7e:	00 00 	addb	%al, (%rax)
      80:	02 00 	addb	(%rax), %al
      82:	00 00 	addb	%al, (%rax)
      84:	02 00 	addb	(%rax), %al
      86:	00 00 	addb	%al, (%rax)
      88:	70 02 	jo	2 <.rela.rodata+0x8c>
      8a:	00 00 	addb	%al, (%rax)
      8c:	00 00 	addb	%al, (%rax)
      8e:	00 00 	addb	%al, (%rax)
      90:	88 00 	movb	%al, (%rax)
      92:	00 00 	addb	%al, (%rax)
      94:	00 00 	addb	%al, (%rax)
      96:	00 00 	addb	%al, (%rax)
      98:	02 00 	addb	(%rax), %al
      9a:	00 00 	addb	%al, (%rax)
      9c:	02 00 	addb	(%rax), %al
      9e:	00 00 	addb	%al, (%rax)
      a0:	dd 02 	fldl	(%rdx)
      a2:	00 00 	addb	%al, (%rax)
      a4:	00 00 	addb	%al, (%rax)
      a6:	00 00 	addb	%al, (%rax)
      a8:	8c 00 	movw	%es, (%rax)
      aa:	00 00 	addb	%al, (%rax)
      ac:	00 00 	addb	%al, (%rax)
      ae:	00 00 	addb	%al, (%rax)
      b0:	02 00 	addb	(%rax), %al
      b2:	00 00 	addb	%al, (%rax)
      b4:	02 00 	addb	(%rax), %al
      b6:	00 00 	addb	%al, (%rax)
      b8:	30 03 	xorb	%al, (%rbx)
      ba:	00 00 	addb	%al, (%rax)
      bc:	00 00 	addb	%al, (%rax)
      be:	00 00 	addb	%al, (%rax)
      c0:	90 	nop
      c1:	00 00 	addb	%al, (%rax)
      c3:	00 00 	addb	%al, (%rax)
      c5:	00 00 	addb	%al, (%rax)
      c7:	00 02 	addb	%al, (%rdx)
      c9:	00 00 	addb	%al, (%rax)
      cb:	00 02 	addb	%al, (%rdx)
      cd:	00 00 	addb	%al, (%rax)
      cf:	00 7f 03 	addb	%bh, 3(%rdi)
      d2:	00 00 	addb	%al, (%rax)
      d4:	00 00 	addb	%al, (%rax)
      d6:	00 00 	addb	%al, (%rax)
      d8:	94 	xchgl	%esp, %eax
      d9:	00 00 	addb	%al, (%rax)
      db:	00 00 	addb	%al, (%rax)
      dd:	00 00 	addb	%al, (%rax)
      df:	00 02 	addb	%al, (%rdx)
      e1:	00 00 	addb	%al, (%rax)
      e3:	00 02 	addb	%al, (%rdx)
      e5:	00 00 	addb	%al, (%rax)
      e7:	00 de 	addb	%bl, %dh
      e9:	03 00 	addl	(%rax), %eax
      eb:	00 00 	addb	%al, (%rax)
      ed:	00 00 	addb	%al, (%rax)
      ef:	00 98 00 00 00 00 	addb	%bl, (%rax)
      f5:	00 00 	addb	%al, (%rax)
      f7:	00 02 	addb	%al, (%rdx)
      f9:	00 00 	addb	%al, (%rax)
      fb:	00 02 	addb	%al, (%rdx)
      fd:	00 00 	addb	%al, (%rax)
      ff:	00 43 04 	addb	%al, 4(%rbx)
     102:	00 00 	addb	%al, (%rax)
     104:	00 00 	addb	%al, (%rax)
     106:	00 00 	addb	%al, (%rax)
     108:	9c 	pushfq
     109:	00 00 	addb	%al, (%rax)
     10b:	00 00 	addb	%al, (%rax)
     10d:	00 00 	addb	%al, (%rax)
     10f:	00 02 	addb	%al, (%rdx)
     111:	00 00 	addb	%al, (%rax)
     113:	00 02 	addb	%al, (%rdx)
     115:	00 00 	addb	%al, (%rax)
     117:	00 d3 	addb	%dl, %bl
     119:	04 00 	addb	$0, %al
     11b:	00 00 	addb	%al, (%rax)
     11d:	00 00 	addb	%al, (%rax)
     11f:	00 a0 00 00 00 00 	addb	%ah, (%rax)
     125:	00 00 	addb	%al, (%rax)
     127:	00 02 	addb	%al, (%rdx)
     129:	00 00 	addb	%al, (%rax)
     12b:	00 02 	addb	%al, (%rdx)
     12d:	00 00 	addb	%al, (%rax)
     12f:	00 6d 05 	addb	%ch, 5(%rbp)
     132:	00 00 	addb	%al, (%rax)
     134:	00 00 	addb	%al, (%rax)
     136:	00 00 	addb	%al, (%rax)
     138:	a4 	movsb	(%rsi), %es:(%rdi)
     139:	00 00 	addb	%al, (%rax)
     13b:	00 00 	addb	%al, (%rax)
     13d:	00 00 	addb	%al, (%rax)
     13f:	00 02 	addb	%al, (%rdx)
     141:	00 00 	addb	%al, (%rax)
     143:	00 02 	addb	%al, (%rdx)
     145:	00 00 	addb	%al, (%rax)
     147:	00 a4 05 00 00 00 00 	addb	%ah, (%rbp,%rax)
     14e:	00 00 	addb	%al, (%rax)
Disassembly of section .text._ZSt11setiosflagsSt13_Ios_Fmtflags:
_ZSt11setiosflagsSt13_Ios_Fmtflags:
       0:	55 	pushq	%rbp
       1:	48 89 e5 	movq	%rsp, %rbp
       4:	89 7d fc 	movl	%edi, -4(%rbp)
       7:	8b 45 fc 	movl	-4(%rbp), %eax
       a:	5d 	popq	%rbp
       b:	c3 	retq
Disassembly of section .text._ZSt4setwi:
_ZSt4setwi:
       0:	55 	pushq	%rbp
       1:	48 89 e5 	movq	%rsp, %rbp
       4:	89 7d fc 	movl	%edi, -4(%rbp)
       7:	8b 45 fc 	movl	-4(%rbp), %eax
       a:	5d 	popq	%rbp
       b:	c3 	retq
Disassembly of section .text._ZSt4moveIRdEONSt16remove_referenceIT_E4typeEOS2_:
_ZSt4moveIRdEONSt16remove_referenceIT_E4typeEOS2_:
       0:	55 	pushq	%rbp
       1:	48 89 e5 	movq	%rsp, %rbp
       4:	48 89 7d f8 	movq	%rdi, -8(%rbp)
       8:	48 8b 45 f8 	movq	-8(%rbp), %rax
       c:	5d 	popq	%rbp
       d:	c3 	retq
Disassembly of section .text._ZSt4swapIdENSt9enable_ifIXsrSt6__and_IJSt6__not_ISt15__is_tuple_likeIT_EESt21is_move_constructibleIS4_ESt18is_move_assignableIS4_EEE5valueEvE4typeERS4_SE_:
_ZSt4swapIdENSt9enable_ifIXsrSt6__and_IJSt6__not_ISt15__is_tuple_likeIT_EESt21is_move_constructibleIS4_ESt18is_move_assignableIS4_EEE5valueEvE4typeERS4_SE_:
       0:	55 	pushq	%rbp
       1:	48 89 e5 	movq	%rsp, %rbp
       4:	48 83 ec 20 	subq	$32, %rsp
       8:	48 89 7d e8 	movq	%rdi, -24(%rbp)
       c:	48 89 75 e0 	movq	%rsi, -32(%rbp)
      10:	48 8b 45 e8 	movq	-24(%rbp), %rax
      14:	48 89 c7 	movq	%rax, %rdi
      17:	e8 00 00 00 00 	callq	0 <_ZSt4swapIdENSt9enable_ifIXsrSt6__and_IJSt6__not_ISt15__is_tuple_likeIT_EESt21is_move_constructibleIS4_ESt18is_move_assignableIS4_EEE5valueEvE4typeERS4_SE_+0x1c>
      1c:	f2 0f 10 00 	movsd	(%rax), %xmm0
      20:	f2 0f 11 45 f8 	movsd	%xmm0, -8(%rbp)
      25:	48 8b 45 e0 	movq	-32(%rbp), %rax
      29:	48 89 c7 	movq	%rax, %rdi
      2c:	e8 00 00 00 00 	callq	0 <_ZSt4swapIdENSt9enable_ifIXsrSt6__and_IJSt6__not_ISt15__is_tuple_likeIT_EESt21is_move_constructibleIS4_ESt18is_move_assignableIS4_EEE5valueEvE4typeERS4_SE_+0x31>
      31:	f2 0f 10 00 	movsd	(%rax), %xmm0
      35:	48 8b 45 e8 	movq	-24(%rbp), %rax
      39:	f2 0f 11 00 	movsd	%xmm0, (%rax)
      3d:	48 8d 45 f8 	leaq	-8(%rbp), %rax
      41:	48 89 c7 	movq	%rax, %rdi
      44:	e8 00 00 00 00 	callq	0 <_ZSt4swapIdENSt9enable_ifIXsrSt6__and_IJSt6__not_ISt15__is_tuple_likeIT_EESt21is_move_constructibleIS4_ESt18is_move_assignableIS4_EEE5valueEvE4typeERS4_SE_+0x49>
      49:	f2 0f 10 00 	movsd	(%rax), %xmm0
      4d:	48 8b 45 e0 	movq	-32(%rbp), %rax
      51:	f2 0f 11 00 	movsd	%xmm0, (%rax)
      55:	90 	nop
      56:	c9 	leave
      57:	c3 	retq
Disassembly of section .rela.text._ZSt4swapIdENSt9enable_ifIXsrSt6__and_IJSt6__not_ISt15__is_tuple_likeIT_EESt21is_move_constructibleIS4_ESt18is_move_assignableIS4_EEE5valueEvE4typeERS4_SE_:
.rela.text._ZSt4swapIdENSt9enable_ifIXsrSt6__and_IJSt6__not_ISt15__is_tuple_likeIT_EESt21is_move_constructibleIS4_ESt18is_move_assignableIS4_EEE5valueEvE4typeERS4_SE_:
       0:	18 00 	sbbb	%al, (%rax)
       2:	00 00 	addb	%al, (%rax)
       4:	00 00 	addb	%al, (%rax)
       6:	00 00 	addb	%al, (%rax)
       8:	04 00 	addb	$0, %al
       a:	00 00 	addb	%al, (%rax)
       c:	36 00 00 	addb	%al, %ss:(%rax)
       f:	00 fc 	addb	%bh, %ah
      11:	ff ff  <unknown>
      13:	ff ff  <unknown>
      15:	ff ff  <unknown>
      17:	ff 2d 00 00 00 00 	ljmpl	*(%rip)
      1d:	00 00 	addb	%al, (%rax)
      1f:	00 04 00 	addb	%al, (%rax,%rax)
      22:	00 00 	addb	%al, (%rax)
      24:	36 00 00 	addb	%al, %ss:(%rax)
      27:	00 fc 	addb	%bh, %ah
      29:	ff ff  <unknown>
      2b:	ff ff  <unknown>
      2d:	ff ff  <unknown>
      2f:	ff 45 00 	incl	(%rbp)
      32:	00 00 	addb	%al, (%rax)
      34:	00 00 	addb	%al, (%rax)
      36:	00 00 	addb	%al, (%rax)
      38:	04 00 	addb	$0, %al
      3a:	00 00 	addb	%al, (%rax)
      3c:	36 00 00 	addb	%al, %ss:(%rax)
      3f:	00 fc 	addb	%bh, %ah
      41:	ff ff  <unknown>
      43:	ff ff  <unknown>
      45:	ff ff  <unknown>
      47:	ff  <unknown>
Disassembly of section .init_array:
.init_array:
       0:	00 00 	addb	%al, (%rax)
       2:	00 00 	addb	%al, (%rax)
       4:	00 00 	addb	%al, (%rax)
       6:	00 00 	addb	%al, (%rax)
Disassembly of section .rela.init_array:
.rela.init_array:
       0:	00 00 	addb	%al, (%rax)
       2:	00 00 	addb	%al, (%rax)
       4:	00 00 	addb	%al, (%rax)
       6:	00 00 	addb	%al, (%rax)
       8:	01 00 	addl	%eax, (%rax)
       a:	00 00 	addb	%al, (%rax)
       c:	02 00 	addb	(%rax), %al
       e:	00 00 	addb	%al, (%rax)
      10:	86 0f 	xchgb	%cl, (%rdi)
      12:	00 00 	addb	%al, (%rax)
      14:	00 00 	addb	%al, (%rax)
      16:	00 00 	addb	%al, (%rax)
Disassembly of section .comment:
.comment:
       0:	00 47 43 	addb	%al, 67(%rdi)
       3:	43 3a 20 	cmpb	(%r8), %spl
       6:	28 53 55 	subb	%dl, 85(%rbx)
       9:	53 	pushq	%rbx
       a:	45 20 4c 69 6e 	andb	%r9b, 110(%r9,%rbp,2)
       f:	75 78 	jne	120 <.comment+0x89>
      11:	29 20 	subl	%esp, (%rax)
      13:	37  <unknown>
      14:	2e 33 2e 	xorl	%cs:(%rsi), %ebp
      17:	31 20 	xorl	%esp, (%rax)
      19:	32 30 	xorb	(%rax), %dh
      1b:	31 38 	xorl	%edi, (%rax)
      1d:	30 33 	xorb	%dh, (%rbx)
      1f:	32 33 	xorb	(%rbx), %dh
      21:	20 5b 67 	andb	%bl, 103(%rbx)
      24:	63  <unknown>
      25:	63  <unknown>
      26:	2d 37 2d 62 72 	subl	$1919036727, %eax
      2b:	61  <unknown>
      2c:	6e 	outsb	(%rsi), %dx
      2d:	63  <unknown>
      2e:	68 20 72 65 76 	pushq	$1986359840
      33:	69 73 69 6f 6e 20 32 	imull	$840986223, 105(%rbx), %esi
      3a:	35 38 38 31 32 	xorl	$842086456, %eax
      3f:	5d 	popq	%rbp
      40:	00  <unknown>
Disassembly of section .eh_frame:
.eh_frame:
       0:	14 00 	adcb	$0, %al
       2:	00 00 	addb	%al, (%rax)
       4:	00 00 	addb	%al, (%rax)
       6:	00 00 	addb	%al, (%rax)
       8:	01 7a 52 	addl	%edi, 82(%rdx)
       b:	00 01 	addb	%al, (%rcx)
       d:	78 10 	js	16 <.eh_frame+0x1f>
       f:	01 1b 	addl	%ebx, (%rbx)
      11:	0c 07 	orb	$7, %al
      13:	08 90 01 00 00 1c 	orb	%dl, 469762049(%rax)
      19:	00 00 	addb	%al, (%rax)
      1b:	00 1c 00 	addb	%bl, (%rax,%rax)
      1e:	00 00 	addb	%al, (%rax)
      20:	00 00 	addb	%al, (%rax)
      22:	00 00 	addb	%al, (%rax)
      24:	0c 00 	orb	$0, %al
      26:	00 00 	addb	%al, (%rax)
      28:	00 41 0e 	addb	%al, 14(%rcx)
      2b:	10 86 02 43 0d 06 	adcb	%al, 101532418(%rsi)
      31:	47 0c 07 	orb	$7, %al
      34:	08 00 	orb	%al, (%rax)
      36:	00 00 	addb	%al, (%rax)
      38:	1c 00 	sbbb	$0, %al
      3a:	00 00 	addb	%al, (%rax)
      3c:	3c 00 	cmpb	$0, %al
      3e:	00 00 	addb	%al, (%rax)
      40:	00 00 	addb	%al, (%rax)
      42:	00 00 	addb	%al, (%rax)
      44:	0c 00 	orb	$0, %al
      46:	00 00 	addb	%al, (%rax)
      48:	00 41 0e 	addb	%al, 14(%rcx)
      4b:	10 86 02 43 0d 06 	adcb	%al, 101532418(%rsi)
      51:	47 0c 07 	orb	$7, %al
      54:	08 00 	orb	%al, (%rax)
      56:	00 00 	addb	%al, (%rax)
      58:	1c 00 	sbbb	$0, %al
      5a:	00 00 	addb	%al, (%rax)
      5c:	5c 	popq	%rsp
      5d:	00 00 	addb	%al, (%rax)
      5f:	00 00 	addb	%al, (%rax)
      61:	00 00 	addb	%al, (%rax)
      63:	00 23 	addb	%ah, (%rbx)
      65:	06  <unknown>
      66:	00 00 	addb	%al, (%rax)
      68:	00 41 0e 	addb	%al, 14(%rcx)
      6b:	10 86 02 43 0d 06 	adcb	%al, 101532418(%rsi)
      71:	03 1e 	addl	(%rsi), %ebx
      73:	06  <unknown>
      74:	0c 07 	orb	$7, %al
      76:	08 00 	orb	%al, (%rax)
      78:	20 00 	andb	%al, (%rax)
      7a:	00 00 	addb	%al, (%rax)
      7c:	7c 00 	jl	0 <.eh_frame+0x7e>
      7e:	00 00 	addb	%al, (%rax)
      80:	00 00 	addb	%al, (%rax)
      82:	00 00 	addb	%al, (%rax)
      84:	71 01 	jno	1 <.eh_frame+0x87>
      86:	00 00 	addb	%al, (%rax)
      88:	00 41 0e 	addb	%al, 14(%rcx)
      8b:	10 86 02 43 0d 06 	adcb	%al, 101532418(%rsi)
      91:	45 83 03 03 	addl	$3, (%r11)
      95:	67 01 0c 07 	addl	%ecx, (%edi,%eax)
      99:	08 00 	orb	%al, (%rax)
      9b:	00 20 	addb	%ah, (%rax)
      9d:	00 00 	addb	%al, (%rax)
      9f:	00 a0 00 00 00 00 	addb	%ah, (%rax)
      a5:	00 00 	addb	%al, (%rax)
      a7:	00 f7 	addb	%dh, %bh
      a9:	05 00 00 00 41 	addl	$1090519040, %eax
      ae:	0e  <unknown>
      af:	10 86 02 43 0d 06 	adcb	%al, 101532418(%rsi)
      b5:	45 83 03 03 	addl	$3, (%r11)
      b9:	ed 	inl	%dx, %eax
      ba:	05 0c 07 08 00 	addl	$526092, %eax
      bf:	00 1c 00 	addb	%bl, (%rax,%rax)
      c2:	00 00 	addb	%al, (%rax)
      c4:	c4 00 00  <unknown>
      c7:	00 00 	addb	%al, (%rax)
      c9:	00 00 	addb	%al, (%rax)
      cb:	00 b2 01 00 00 00 	addb	%dh, 1(%rdx)
      d1:	41 0e  <unknown>
      d3:	10 86 02 43 0d 06 	adcb	%al, 101532418(%rsi)
      d9:	03 ad 01 0c 07 08 	addl	134679553(%rbp), %ebp
      df:	00 1c 00 	addb	%bl, (%rax,%rax)
      e2:	00 00 	addb	%al, (%rax)
      e4:	e4 00 	inb	$0, %al
      e6:	00 00 	addb	%al, (%rax)
      e8:	00 00 	addb	%al, (%rax)
      ea:	00 00 	addb	%al, (%rax)
      ec:	0e  <unknown>
      ed:	00 00 	addb	%al, (%rax)
      ef:	00 00 	addb	%al, (%rax)
      f1:	41 0e  <unknown>
      f3:	10 86 02 43 0d 06 	adcb	%al, 101532418(%rsi)
      f9:	49 0c 07 	orb	$7, %al
      fc:	08 00 	orb	%al, (%rax)
      fe:	00 00 	addb	%al, (%rax)
     100:	1c 00 	sbbb	$0, %al
     102:	00 00 	addb	%al, (%rax)
     104:	04 01 	addb	$1, %al
     106:	00 00 	addb	%al, (%rax)
     108:	00 00 	addb	%al, (%rax)
     10a:	00 00 	addb	%al, (%rax)
     10c:	58 	popq	%rax
     10d:	00 00 	addb	%al, (%rax)
     10f:	00 00 	addb	%al, (%rax)
     111:	41 0e  <unknown>
     113:	10 86 02 43 0d 06 	adcb	%al, 101532418(%rsi)
     119:	02 53 0c 	addb	12(%rbx), %dl
     11c:	07  <unknown>
     11d:	08 00 	orb	%al, (%rax)
     11f:	00 1c 00 	addb	%bl, (%rax,%rax)
     122:	00 00 	addb	%al, (%rax)
     124:	24 01 	andb	$1, %al
     126:	00 00 	addb	%al, (%rax)
     128:	00 00 	addb	%al, (%rax)
     12a:	00 00 	addb	%al, (%rax)
     12c:	49 00 00 	addb	%al, (%r8)
     12f:	00 00 	addb	%al, (%rax)
     131:	41 0e  <unknown>
     133:	10 86 02 43 0d 06 	adcb	%al, 101532418(%rsi)
     139:	02 44 0c 07 	addb	7(%rsp,%rcx), %al
     13d:	08 00 	orb	%al, (%rax)
     13f:	00 1c 00 	addb	%bl, (%rax,%rax)
     142:	00 00 	addb	%al, (%rax)
     144:	44 01 00 	addl	%r8d, (%rax)
     147:	00 00 	addb	%al, (%rax)
     149:	00 00 	addb	%al, (%rax)
     14b:	00 15 00 00 00 00 	addb	%dl, (%rip)
     151:	41 0e  <unknown>
     153:	10 86 02 43 0d 06 	adcb	%al, 101532418(%rsi)
     159:	50 	pushq	%rax
     15a:	0c 07 	orb	$7, %al
     15c:	08 00 	orb	%al, (%rax)
     15e:	00 00 	addb	%al, (%rax)
Disassembly of section .rela.eh_frame:
.rela.eh_frame:
       0:	20 00 	andb	%al, (%rax)
       2:	00 00 	addb	%al, (%rax)
       4:	00 00 	addb	%al, (%rax)
       6:	00 00 	addb	%al, (%rax)
       8:	02 00 	addb	(%rax), %al
       a:	00 00 	addb	%al, (%rax)
       c:	0a 00 	orb	(%rax), %al
       e:	00 00 	addb	%al, (%rax)
      10:	00 00 	addb	%al, (%rax)
      12:	00 00 	addb	%al, (%rax)
      14:	00 00 	addb	%al, (%rax)
      16:	00 00 	addb	%al, (%rax)
      18:	40 00 00 	addb	%al, (%rax)
      1b:	00 00 	addb	%al, (%rax)
      1d:	00 00 	addb	%al, (%rax)
      1f:	00 02 	addb	%al, (%rdx)
      21:	00 00 	addb	%al, (%rax)
      23:	00 0b 	addb	%cl, (%rbx)
      25:	00 00 	addb	%al, (%rax)
      27:	00 00 	addb	%al, (%rax)
      29:	00 00 	addb	%al, (%rax)
      2b:	00 00 	addb	%al, (%rax)
      2d:	00 00 	addb	%al, (%rax)
      2f:	00 60 00 	addb	%ah, (%rax)
      32:	00 00 	addb	%al, (%rax)
      34:	00 00 	addb	%al, (%rax)
      36:	00 00 	addb	%al, (%rax)
      38:	02 00 	addb	(%rax), %al
      3a:	00 00 	addb	%al, (%rax)
      3c:	02 00 	addb	(%rax), %al
      3e:	00 00 	addb	%al, (%rax)
      40:	00 00 	addb	%al, (%rax)
      42:	00 00 	addb	%al, (%rax)
      44:	00 00 	addb	%al, (%rax)
      46:	00 00 	addb	%al, (%rax)
      48:	80 00 00 	addb	$0, (%rax)
      4b:	00 00 	addb	%al, (%rax)
      4d:	00 00 	addb	%al, (%rax)
      4f:	00 02 	addb	%al, (%rdx)
      51:	00 00 	addb	%al, (%rax)
      53:	00 02 	addb	%al, (%rdx)
      55:	00 00 	addb	%al, (%rax)
      57:	00 23 	addb	%ah, (%rbx)
      59:	06  <unknown>
      5a:	00 00 	addb	%al, (%rax)
      5c:	00 00 	addb	%al, (%rax)
      5e:	00 00 	addb	%al, (%rax)
      60:	a4 	movsb	(%rsi), %es:(%rdi)
      61:	00 00 	addb	%al, (%rax)
      63:	00 00 	addb	%al, (%rax)
      65:	00 00 	addb	%al, (%rax)
      67:	00 02 	addb	%al, (%rdx)
      69:	00 00 	addb	%al, (%rax)
      6b:	00 02 	addb	%al, (%rdx)
      6d:	00 00 	addb	%al, (%rax)
      6f:	00 94 07 00 00 00 00 	addb	%dl, (%rdi,%rax)
      76:	00 00 	addb	%al, (%rax)
      78:	c8 00 00 00 	enter	$0, $0
      7c:	00 00 	addb	%al, (%rax)
      7e:	00 00 	addb	%al, (%rax)
      80:	02 00 	addb	(%rax), %al
      82:	00 00 	addb	%al, (%rax)
      84:	02 00 	addb	(%rax), %al
      86:	00 00 	addb	%al, (%rax)
      88:	8b 0d 00 00 00 00 	movl	(%rip), %ecx
      8e:	00 00 	addb	%al, (%rax)
      90:	e8 00 00 00 00 	callq	0 <.rela.eh_frame+0x95>
      95:	00 00 	addb	%al, (%rax)
      97:	00 02 	addb	%al, (%rdx)
      99:	00 00 	addb	%al, (%rax)
      9b:	00 12 	addb	%dl, (%rdx)
      9d:	00 00 	addb	%al, (%rax)
      9f:	00 00 	addb	%al, (%rax)
      a1:	00 00 	addb	%al, (%rax)
      a3:	00 00 	addb	%al, (%rax)
      a5:	00 00 	addb	%al, (%rax)
      a7:	00 08 	addb	%cl, (%rax)
      a9:	01 00 	addl	%eax, (%rax)
      ab:	00 00 	addb	%al, (%rax)
      ad:	00 00 	addb	%al, (%rax)
      af:	00 02 	addb	%al, (%rdx)
      b1:	00 00 	addb	%al, (%rax)
      b3:	00 13 	addb	%dl, (%rbx)
      b5:	00 00 	addb	%al, (%rax)
      b7:	00 00 	addb	%al, (%rax)
      b9:	00 00 	addb	%al, (%rax)
      bb:	00 00 	addb	%al, (%rax)
      bd:	00 00 	addb	%al, (%rax)
      bf:	00 28 	addb	%ch, (%rax)
      c1:	01 00 	addl	%eax, (%rax)
      c3:	00 00 	addb	%al, (%rax)
      c5:	00 00 	addb	%al, (%rax)
      c7:	00 02 	addb	%al, (%rdx)
      c9:	00 00 	addb	%al, (%rax)
      cb:	00 02 	addb	%al, (%rdx)
      cd:	00 00 	addb	%al, (%rax)
      cf:	00 3d 0f 00 00 00 	addb	%bh, 15(%rip)
      d5:	00 00 	addb	%al, (%rax)
      d7:	00 48 01 	addb	%cl, 1(%rax)
      da:	00 00 	addb	%al, (%rax)
      dc:	00 00 	addb	%al, (%rax)
      de:	00 00 	addb	%al, (%rax)
      e0:	02 00 	addb	(%rax), %al
      e2:	00 00 	addb	%al, (%rax)
      e4:	02 00 	addb	(%rax), %al
      e6:	00 00 	addb	%al, (%rax)
      e8:	86 0f 	xchgb	%cl, (%rdi)
      ea:	00 00 	addb	%al, (%rax)
      ec:	00 00 	addb	%al, (%rax)
      ee:	00 00 	addb	%al, (%rax)
Disassembly of section .symtab:
.symtab:
       0:	00 00 	addb	%al, (%rax)
       2:	00 00 	addb	%al, (%rax)
       4:	00 00 	addb	%al, (%rax)
       6:	00 00 	addb	%al, (%rax)
       8:	00 00 	addb	%al, (%rax)
       a:	00 00 	addb	%al, (%rax)
       c:	00 00 	addb	%al, (%rax)
       e:	00 00 	addb	%al, (%rax)
      10:	00 00 	addb	%al, (%rax)
      12:	00 00 	addb	%al, (%rax)
      14:	00 00 	addb	%al, (%rax)
      16:	00 00 	addb	%al, (%rax)
      18:	d3 00 	roll	%cl, (%rax)
      1a:	00 00 	addb	%al, (%rax)
      1c:	04 00 	addb	$0, %al
      1e:	f1  <unknown>
      1f:	ff 00 	incl	(%rax)
      21:	00 00 	addb	%al, (%rax)
      23:	00 00 	addb	%al, (%rax)
      25:	00 00 	addb	%al, (%rax)
      27:	00 00 	addb	%al, (%rax)
      29:	00 00 	addb	%al, (%rax)
      2b:	00 00 	addb	%al, (%rax)
      2d:	00 00 	addb	%al, (%rax)
      2f:	00 00 	addb	%al, (%rax)
      31:	00 00 	addb	%al, (%rax)
      33:	00 03 	addb	%al, (%rbx)
      35:	00 05 00 00 00 00 	addb	%al, (%rip)
      3b:	00 00 	addb	%al, (%rax)
      3d:	00 00 	addb	%al, (%rax)
      3f:	00 00 	addb	%al, (%rax)
      41:	00 00 	addb	%al, (%rax)
      43:	00 00 	addb	%al, (%rax)
      45:	00 00 	addb	%al, (%rax)
      47:	00 00 	addb	%al, (%rax)
      49:	00 00 	addb	%al, (%rax)
      4b:	00 03 	addb	%al, (%rbx)
      4d:	00 07 	addb	%al, (%rdi)
      4f:	00 00 	addb	%al, (%rax)
      51:	00 00 	addb	%al, (%rax)
      53:	00 00 	addb	%al, (%rax)
      55:	00 00 	addb	%al, (%rax)
      57:	00 00 	addb	%al, (%rax)
      59:	00 00 	addb	%al, (%rax)
      5b:	00 00 	addb	%al, (%rax)
      5d:	00 00 	addb	%al, (%rax)
      5f:	00 00 	addb	%al, (%rax)
      61:	00 00 	addb	%al, (%rax)
      63:	00 03 	addb	%al, (%rbx)
      65:	00 08 	addb	%cl, (%rax)
      67:	00 00 	addb	%al, (%rax)
      69:	00 00 	addb	%al, (%rax)
      6b:	00 00 	addb	%al, (%rax)
      6d:	00 00 	addb	%al, (%rax)
      6f:	00 00 	addb	%al, (%rax)
      71:	00 00 	addb	%al, (%rax)
      73:	00 00 	addb	%al, (%rax)
      75:	00 00 	addb	%al, (%rax)
      77:	00 00 	addb	%al, (%rax)
      79:	00 00 	addb	%al, (%rax)
      7b:	00 03 	addb	%al, (%rbx)
      7d:	00 09 	addb	%cl, (%rcx)
      7f:	00 00 	addb	%al, (%rax)
      81:	00 00 	addb	%al, (%rax)
      83:	00 00 	addb	%al, (%rax)
      85:	00 00 	addb	%al, (%rax)
      87:	00 00 	addb	%al, (%rax)
      89:	00 00 	addb	%al, (%rax)
      8b:	00 00 	addb	%al, (%rax)
      8d:	00 00 	addb	%al, (%rax)
      8f:	00 01 	addb	%al, (%rcx)
      91:	00 00 	addb	%al, (%rax)
      93:	00 01 	addb	%al, (%rcx)
      95:	00 09 	addb	%cl, (%rcx)
      97:	00 00 	addb	%al, (%rax)
      99:	00 00 	addb	%al, (%rax)
      9b:	00 00 	addb	%al, (%rax)
      9d:	00 00 	addb	%al, (%rax)
      9f:	00 01 	addb	%al, (%rcx)
      a1:	00 00 	addb	%al, (%rax)
      a3:	00 00 	addb	%al, (%rax)
      a5:	00 00 	addb	%al, (%rax)
      a7:	00 1c 00 	addb	%bl, (%rax,%rax)
      aa:	00 00 	addb	%al, (%rax)
      ac:	01 00 	addl	%eax, (%rax)
      ae:	08 00 	orb	%al, (%rax)
      b0:	00 00 	addb	%al, (%rax)
      b2:	00 00 	addb	%al, (%rax)
      b4:	00 00 	addb	%al, (%rax)
      b6:	00 00 	addb	%al, (%rax)
      b8:	01 00 	addl	%eax, (%rax)
      ba:	00 00 	addb	%al, (%rax)
      bc:	00 00 	addb	%al, (%rax)
      be:	00 00 	addb	%al, (%rax)
      c0:	2b 00 	subl	(%rax), %eax
      c2:	00 00 	addb	%al, (%rax)
      c4:	01 00 	addl	%eax, (%rax)
      c6:	09 00 	orl	%eax, (%rax)
      c8:	01 00 	addl	%eax, (%rax)
      ca:	00 00 	addb	%al, (%rax)
      cc:	00 00 	addb	%al, (%rax)
      ce:	00 00 	addb	%al, (%rax)
      d0:	01 00 	addl	%eax, (%rax)
      d2:	00 00 	addb	%al, (%rax)
      d4:	00 00 	addb	%al, (%rax)
      d6:	00 00 	addb	%al, (%rax)
      d8:	40 00 00 	addb	%al, (%rax)
      db:	00 01 	addb	%al, (%rcx)
      dd:	00 09 	addb	%cl, (%rcx)
      df:	00 02 	addb	%al, (%rdx)
      e1:	00 00 	addb	%al, (%rax)
      e3:	00 00 	addb	%al, (%rax)
      e5:	00 00 	addb	%al, (%rax)
      e7:	00 01 	addb	%al, (%rcx)
      e9:	00 00 	addb	%al, (%rax)
      eb:	00 00 	addb	%al, (%rax)
      ed:	00 00 	addb	%al, (%rax)
      ef:	00 00 	addb	%al, (%rax)
      f1:	00 00 	addb	%al, (%rax)
      f3:	00 03 	addb	%al, (%rbx)
      f5:	00 0b 	addb	%cl, (%rbx)
      f7:	00 00 	addb	%al, (%rax)
      f9:	00 00 	addb	%al, (%rax)
      fb:	00 00 	addb	%al, (%rax)
      fd:	00 00 	addb	%al, (%rax)
      ff:	00 00 	addb	%al, (%rax)
     101:	00 00 	addb	%al, (%rax)
     103:	00 00 	addb	%al, (%rax)
     105:	00 00 	addb	%al, (%rax)
     107:	00 00 	addb	%al, (%rax)
     109:	00 00 	addb	%al, (%rax)
     10b:	00 03 	addb	%al, (%rbx)
     10d:	00 0c 00 	addb	%cl, (%rax,%rax)
     110:	00 00 	addb	%al, (%rax)
     112:	00 00 	addb	%al, (%rax)
     114:	00 00 	addb	%al, (%rax)
     116:	00 00 	addb	%al, (%rax)
     118:	00 00 	addb	%al, (%rax)
     11a:	00 00 	addb	%al, (%rax)
     11c:	00 00 	addb	%al, (%rax)
     11e:	00 00 	addb	%al, (%rax)
     120:	4d 00 00 	addb	%r8b, (%r8)
     123:	00 01 	addb	%al, (%rcx)
     125:	00 08 	addb	%cl, (%rax)
     127:	00 08 	addb	%cl, (%rax)
     129:	00 00 	addb	%al, (%rax)
     12b:	00 00 	addb	%al, (%rax)
     12d:	00 00 	addb	%al, (%rax)
     12f:	00 08 	addb	%cl, (%rax)
     131:	00 00 	addb	%al, (%rax)
     133:	00 00 	addb	%al, (%rax)
     135:	00 00 	addb	%al, (%rax)
     137:	00 54 00 00 	addb	%dl, (%rax,%rax)
     13b:	00 01 	addb	%al, (%rcx)
     13d:	00 08 	addb	%cl, (%rax)
     13f:	00 10 	addb	%dl, (%rax)
     141:	00 00 	addb	%al, (%rax)
     143:	00 00 	addb	%al, (%rax)
     145:	00 00 	addb	%al, (%rax)
     147:	00 08 	addb	%cl, (%rax)
     149:	00 00 	addb	%al, (%rax)
     14b:	00 00 	addb	%al, (%rax)
     14d:	00 00 	addb	%al, (%rax)
     14f:	00 5b 00 	addb	%bl, (%rbx)
     152:	00 00 	addb	%al, (%rax)
     154:	01 00 	addl	%eax, (%rax)
     156:	07  <unknown>
     157:	00 00 	addb	%al, (%rax)
     159:	00 00 	addb	%al, (%rax)
     15b:	00 00 	addb	%al, (%rax)
     15d:	00 00 	addb	%al, (%rax)
     15f:	00 08 	addb	%cl, (%rax)
     161:	00 00 	addb	%al, (%rax)
     163:	00 00 	addb	%al, (%rax)
     165:	00 00 	addb	%al, (%rax)
     167:	00 69 00 	addb	%ch, (%rcx)
     16a:	00 00 	addb	%al, (%rax)
     16c:	01 00 	addl	%eax, (%rax)
     16e:	08 00 	orb	%al, (%rax)
     170:	18 00 	sbbb	%al, (%rax)
     172:	00 00 	addb	%al, (%rax)
     174:	00 00 	addb	%al, (%rax)
     176:	00 00 	addb	%al, (%rax)
     178:	04 00 	addb	$0, %al
     17a:	00 00 	addb	%al, (%rax)
     17c:	00 00 	addb	%al, (%rax)
     17e:	00 00 	addb	%al, (%rax)
     180:	80 00 00 	addb	$0, (%rax)
     183:	00 01 	addb	%al, (%rcx)
     185:	00 08 	addb	%cl, (%rax)
     187:	00 1c 00 	addb	%bl, (%rax,%rax)
     18a:	00 00 	addb	%al, (%rax)
     18c:	00 00 	addb	%al, (%rax)
     18e:	00 00 	addb	%al, (%rax)
     190:	04 00 	addb	$0, %al
     192:	00 00 	addb	%al, (%rax)
     194:	00 00 	addb	%al, (%rax)
     196:	00 00 	addb	%al, (%rax)
     198:	8b 00 	movl	(%rax), %eax
     19a:	00 00 	addb	%al, (%rax)
     19c:	01 00 	addl	%eax, (%rax)
     19e:	08 00 	orb	%al, (%rax)
     1a0:	20 00 	andb	%al, (%rax)
     1a2:	00 00 	addb	%al, (%rax)
     1a4:	00 00 	addb	%al, (%rax)
     1a6:	00 00 	addb	%al, (%rax)
     1a8:	04 00 	addb	$0, %al
     1aa:	00 00 	addb	%al, (%rax)
     1ac:	00 00 	addb	%al, (%rax)
     1ae:	00 00 	addb	%al, (%rax)
     1b0:	00 00 	addb	%al, (%rax)
     1b2:	00 00 	addb	%al, (%rax)
     1b4:	03 00 	addl	(%rax), %eax
     1b6:	0d 00 00 00 00 	orl	$0, %eax
     1bb:	00 00 	addb	%al, (%rax)
     1bd:	00 00 	addb	%al, (%rax)
     1bf:	00 00 	addb	%al, (%rax)
     1c1:	00 00 	addb	%al, (%rax)
     1c3:	00 00 	addb	%al, (%rax)
     1c5:	00 00 	addb	%al, (%rax)
     1c7:	00 00 	addb	%al, (%rax)
     1c9:	00 00 	addb	%al, (%rax)
     1cb:	00 03 	addb	%al, (%rbx)
     1cd:	00 0e 	addb	%cl, (%rsi)
     1cf:	00 00 	addb	%al, (%rax)
     1d1:	00 00 	addb	%al, (%rax)
     1d3:	00 00 	addb	%al, (%rax)
     1d5:	00 00 	addb	%al, (%rax)
     1d7:	00 00 	addb	%al, (%rax)
     1d9:	00 00 	addb	%al, (%rax)
     1db:	00 00 	addb	%al, (%rax)
     1dd:	00 00 	addb	%al, (%rax)
     1df:	00 94 00 00 00 02 00 	addb	%dl, 131072(%rax,%rax)
     1e6:	05 00 3d 0f 00 	addl	$998656, %eax
     1eb:	00 00 	addb	%al, (%rax)
     1ed:	00 00 	addb	%al, (%rax)
     1ef:	00 49 00 	addb	%cl, (%rcx)
     1f2:	00 00 	addb	%al, (%rax)
     1f4:	00 00 	addb	%al, (%rax)
     1f6:	00 00 	addb	%al, (%rax)
     1f8:	c4 00 00  <unknown>
     1fb:	00 02 	addb	%al, (%rdx)
     1fd:	00 05 00 86 0f 00 	addb	%al, 1017344(%rip)
     203:	00 00 	addb	%al, (%rax)
     205:	00 00 	addb	%al, (%rax)
     207:	00 15 00 00 00 00 	addb	%dl, (%rip)
     20d:	00 00 	addb	%al, (%rax)
     20f:	00 00 	addb	%al, (%rax)
     211:	00 00 	addb	%al, (%rax)
     213:	00 03 	addb	%al, (%rbx)
     215:	00 10 	addb	%dl, (%rax)
     217:	00 00 	addb	%al, (%rax)
     219:	00 00 	addb	%al, (%rax)
     21b:	00 00 	addb	%al, (%rax)
     21d:	00 00 	addb	%al, (%rax)
     21f:	00 00 	addb	%al, (%rax)
     221:	00 00 	addb	%al, (%rax)
     223:	00 00 	addb	%al, (%rax)
     225:	00 00 	addb	%al, (%rax)
     227:	00 00 	addb	%al, (%rax)
     229:	00 00 	addb	%al, (%rax)
     22b:	00 03 	addb	%al, (%rbx)
     22d:	00 13 	addb	%dl, (%rbx)
     22f:	00 00 	addb	%al, (%rax)
     231:	00 00 	addb	%al, (%rax)
     233:	00 00 	addb	%al, (%rax)
     235:	00 00 	addb	%al, (%rax)
     237:	00 00 	addb	%al, (%rax)
     239:	00 00 	addb	%al, (%rax)
     23b:	00 00 	addb	%al, (%rax)
     23d:	00 00 	addb	%al, (%rax)
     23f:	00 00 	addb	%al, (%rax)
     241:	00 00 	addb	%al, (%rax)
     243:	00 03 	addb	%al, (%rbx)
     245:	00 14 00 	addb	%dl, (%rax,%rax)
     248:	00 00 	addb	%al, (%rax)
     24a:	00 00 	addb	%al, (%rax)
     24c:	00 00 	addb	%al, (%rax)
     24e:	00 00 	addb	%al, (%rax)
     250:	00 00 	addb	%al, (%rax)
     252:	00 00 	addb	%al, (%rax)
     254:	00 00 	addb	%al, (%rax)
     256:	00 00 	addb	%al, (%rax)
     258:	00 00 	addb	%al, (%rax)
     25a:	00 00 	addb	%al, (%rax)
     25c:	03 00 	addl	(%rax), %eax
     25e:	12 00 	adcb	(%rax), %al
     260:	00 00 	addb	%al, (%rax)
     262:	00 00 	addb	%al, (%rax)
     264:	00 00 	addb	%al, (%rax)
     266:	00 00 	addb	%al, (%rax)
     268:	00 00 	addb	%al, (%rax)
     26a:	00 00 	addb	%al, (%rax)
     26c:	00 00 	addb	%al, (%rax)
     26e:	00 00 	addb	%al, (%rax)
     270:	00 00 	addb	%al, (%rax)
     272:	00 00 	addb	%al, (%rax)
     274:	03 00 	addl	(%rax), %eax
     276:	01 00 	addl	%eax, (%rax)
     278:	00 00 	addb	%al, (%rax)
     27a:	00 00 	addb	%al, (%rax)
     27c:	00 00 	addb	%al, (%rax)
     27e:	00 00 	addb	%al, (%rax)
     280:	00 00 	addb	%al, (%rax)
     282:	00 00 	addb	%al, (%rax)
     284:	00 00 	addb	%al, (%rax)
     286:	00 00 	addb	%al, (%rax)
     288:	00 00 	addb	%al, (%rax)
     28a:	00 00 	addb	%al, (%rax)
     28c:	03 00 	addl	(%rax), %eax
     28e:	02 00 	addb	(%rax), %al
     290:	00 00 	addb	%al, (%rax)
     292:	00 00 	addb	%al, (%rax)
     294:	00 00 	addb	%al, (%rax)
     296:	00 00 	addb	%al, (%rax)
     298:	00 00 	addb	%al, (%rax)
     29a:	00 00 	addb	%al, (%rax)
     29c:	00 00 	addb	%al, (%rax)
     29e:	00 00 	addb	%al, (%rax)
     2a0:	00 00 	addb	%al, (%rax)
     2a2:	00 00 	addb	%al, (%rax)
     2a4:	03 00 	addl	(%rax), %eax
     2a6:	03 00 	addl	(%rax), %eax
     2a8:	00 00 	addb	%al, (%rax)
     2aa:	00 00 	addb	%al, (%rax)
     2ac:	00 00 	addb	%al, (%rax)
     2ae:	00 00 	addb	%al, (%rax)
     2b0:	00 00 	addb	%al, (%rax)
     2b2:	00 00 	addb	%al, (%rax)
     2b4:	00 00 	addb	%al, (%rax)
     2b6:	00 00 	addb	%al, (%rax)
     2b8:	00 00 	addb	%al, (%rax)
     2ba:	00 00 	addb	%al, (%rax)
     2bc:	03 00 	addl	(%rax), %eax
     2be:	04 00 	addb	$0, %al
     2c0:	00 00 	addb	%al, (%rax)
     2c2:	00 00 	addb	%al, (%rax)
     2c4:	00 00 	addb	%al, (%rax)
     2c6:	00 00 	addb	%al, (%rax)
     2c8:	00 00 	addb	%al, (%rax)
     2ca:	00 00 	addb	%al, (%rax)
     2cc:	00 00 	addb	%al, (%rax)
     2ce:	00 00 	addb	%al, (%rax)
     2d0:	dc 00 	faddl	(%rax)
     2d2:	00 00 	addb	%al, (%rax)
     2d4:	22 00 	andb	(%rax), %al
     2d6:	0b 00 	orl	(%rax), %eax
     2d8:	00 00 	addb	%al, (%rax)
     2da:	00 00 	addb	%al, (%rax)
     2dc:	00 00 	addb	%al, (%rax)
     2de:	00 00 	addb	%al, (%rax)
     2e0:	0c 00 	orb	$0, %al
     2e2:	00 00 	addb	%al, (%rax)
     2e4:	00 00 	addb	%al, (%rax)
     2e6:	00 00 	addb	%al, (%rax)
     2e8:	ff 00 	incl	(%rax)
     2ea:	00 00 	addb	%al, (%rax)
     2ec:	22 00 	andb	(%rax), %al
     2ee:	0c 00 	orb	$0, %al
     2f0:	00 00 	addb	%al, (%rax)
     2f2:	00 00 	addb	%al, (%rax)
     2f4:	00 00 	addb	%al, (%rax)
     2f6:	00 00 	addb	%al, (%rax)
     2f8:	0c 00 	orb	$0, %al
     2fa:	00 00 	addb	%al, (%rax)
     2fc:	00 00 	addb	%al, (%rax)
     2fe:	00 00 	addb	%al, (%rax)
     300:	0a 01 	orb	(%rcx), %al
     302:	00 00 	addb	%al, (%rax)
     304:	11 00 	adcl	%eax, (%rax)
     306:	09 00 	orl	%eax, (%rax)
     308:	04 00 	addb	$0, %al
     30a:	00 00 	addb	%al, (%rax)
     30c:	00 00 	addb	%al, (%rax)
     30e:	00 00 	addb	%al, (%rax)
     310:	04 00 	addb	$0, %al
     312:	00 00 	addb	%al, (%rax)
     314:	00 00 	addb	%al, (%rax)
     316:	00 00 	addb	%al, (%rax)
     318:	14 01 	adcb	$1, %al
     31a:	00 00 	addb	%al, (%rax)
     31c:	11 00 	adcl	%eax, (%rax)
     31e:	09 00 	orl	%eax, (%rax)
     320:	08 00 	orb	%al, (%rax)
     322:	00 00 	addb	%al, (%rax)
     324:	00 00 	addb	%al, (%rax)
     326:	00 00 	addb	%al, (%rax)
     328:	04 00 	addb	$0, %al
     32a:	00 00 	addb	%al, (%rax)
     32c:	00 00 	addb	%al, (%rax)
     32e:	00 00 	addb	%al, (%rax)
     330:	24 01 	andb	$1, %al
     332:	00 00 	addb	%al, (%rax)
     334:	12 00 	adcb	(%rax), %al
     336:	05 00 00 00 00 	addl	$0, %eax
     33b:	00 00 	addb	%al, (%rax)
     33d:	00 00 	addb	%al, (%rax)
     33f:	00 23 	addb	%ah, (%rbx)
     341:	06  <unknown>
     342:	00 00 	addb	%al, (%rax)
     344:	00 00 	addb	%al, (%rax)
     346:	00 00 	addb	%al, (%rax)
     348:	34 01 	xorb	$1, %al
     34a:	00 00 	addb	%al, (%rax)
     34c:	10 00 	adcb	%al, (%rax)
     34e:	00 00 	addb	%al, (%rax)
     350:	00 00 	addb	%al, (%rax)
     352:	00 00 	addb	%al, (%rax)
     354:	00 00 	addb	%al, (%rax)
     356:	00 00 	addb	%al, (%rax)
     358:	00 00 	addb	%al, (%rax)
     35a:	00 00 	addb	%al, (%rax)
     35c:	00 00 	addb	%al, (%rax)
     35e:	00 00 	addb	%al, (%rax)
     360:	4a 01 00 	addq	%rax, (%rax)
     363:	00 10 	addb	%dl, (%rax)
     365:	00 00 	addb	%al, (%rax)
     367:	00 00 	addb	%al, (%rax)
     369:	00 00 	addb	%al, (%rax)
     36b:	00 00 	addb	%al, (%rax)
     36d:	00 00 	addb	%al, (%rax)
     36f:	00 00 	addb	%al, (%rax)
     371:	00 00 	addb	%al, (%rax)
     373:	00 00 	addb	%al, (%rax)
     375:	00 00 	addb	%al, (%rax)
     377:	00 4f 01 	addb	%cl, 1(%rdi)
     37a:	00 00 	addb	%al, (%rax)
     37c:	10 00 	adcb	%al, (%rax)
     37e:	00 00 	addb	%al, (%rax)
     380:	00 00 	addb	%al, (%rax)
     382:	00 00 	addb	%al, (%rax)
     384:	00 00 	addb	%al, (%rax)
     386:	00 00 	addb	%al, (%rax)
     388:	00 00 	addb	%al, (%rax)
     38a:	00 00 	addb	%al, (%rax)
     38c:	00 00 	addb	%al, (%rax)
     38e:	00 00 	addb	%al, (%rax)
     390:	59 	popq	%rcx
     391:	01 00 	addl	%eax, (%rax)
     393:	00 10 	addb	%dl, (%rax)
     395:	00 00 	addb	%al, (%rax)
     397:	00 00 	addb	%al, (%rax)
     399:	00 00 	addb	%al, (%rax)
     39b:	00 00 	addb	%al, (%rax)
     39d:	00 00 	addb	%al, (%rax)
     39f:	00 00 	addb	%al, (%rax)
     3a1:	00 00 	addb	%al, (%rax)
     3a3:	00 00 	addb	%al, (%rax)
     3a5:	00 00 	addb	%al, (%rax)
     3a7:	00 91 01 00 00 10 	addb	%dl, 268435457(%rcx)
     3ad:	00 00 	addb	%al, (%rax)
     3af:	00 00 	addb	%al, (%rax)
     3b1:	00 00 	addb	%al, (%rax)
     3b3:	00 00 	addb	%al, (%rax)
     3b5:	00 00 	addb	%al, (%rax)
     3b7:	00 00 	addb	%al, (%rax)
     3b9:	00 00 	addb	%al, (%rax)
     3bb:	00 00 	addb	%al, (%rax)
     3bd:	00 00 	addb	%al, (%rax)
     3bf:	00 9b 01 00 00 10 	addb	%bl, 268435457(%rbx)
     3c5:	00 00 	addb	%al, (%rax)
     3c7:	00 00 	addb	%al, (%rax)
     3c9:	00 00 	addb	%al, (%rax)
     3cb:	00 00 	addb	%al, (%rax)
     3cd:	00 00 	addb	%al, (%rax)
     3cf:	00 00 	addb	%al, (%rax)
     3d1:	00 00 	addb	%al, (%rax)
     3d3:	00 00 	addb	%al, (%rax)
     3d5:	00 00 	addb	%al, (%rax)
     3d7:	00 d6 	addb	%dl, %dh
     3d9:	01 00 	addl	%eax, (%rax)
     3db:	00 10 	addb	%dl, (%rax)
     3dd:	00 00 	addb	%al, (%rax)
     3df:	00 00 	addb	%al, (%rax)
     3e1:	00 00 	addb	%al, (%rax)
     3e3:	00 00 	addb	%al, (%rax)
     3e5:	00 00 	addb	%al, (%rax)
     3e7:	00 00 	addb	%al, (%rax)
     3e9:	00 00 	addb	%al, (%rax)
     3eb:	00 00 	addb	%al, (%rax)
     3ed:	00 00 	addb	%al, (%rax)
     3ef:	00 0f 	addb	%cl, (%rdi)
     3f1:	04 00 	addb	$0, %al
     3f3:	00 10 	addb	%dl, (%rax)
     3f5:	00 00 	addb	%al, (%rax)
     3f7:	00 00 	addb	%al, (%rax)
     3f9:	00 00 	addb	%al, (%rax)
     3fb:	00 00 	addb	%al, (%rax)
     3fd:	00 00 	addb	%al, (%rax)
     3ff:	00 00 	addb	%al, (%rax)
     401:	00 00 	addb	%al, (%rax)
     403:	00 00 	addb	%al, (%rax)
     405:	00 00 	addb	%al, (%rax)
     407:	00 e7 	addb	%ah, %bh
     409:	01 00 	addl	%eax, (%rax)
     40b:	00 12 	addb	%dl, (%rdx)
     40d:	00 05 00 23 06 00 	addb	%al, 402176(%rip)
     413:	00 00 	addb	%al, (%rax)
     415:	00 00 	addb	%al, (%rax)
     417:	00 71 01 	addb	%dh, 1(%rcx)
     41a:	00 00 	addb	%al, (%rax)
     41c:	00 00 	addb	%al, (%rax)
     41e:	00 00 	addb	%al, (%rax)
     420:	03 02 	addl	(%rdx), %eax
     422:	00 00 	addb	%al, (%rax)
     424:	10 00 	adcb	%al, (%rax)
     426:	00 00 	addb	%al, (%rax)
     428:	00 00 	addb	%al, (%rax)
     42a:	00 00 	addb	%al, (%rax)
     42c:	00 00 	addb	%al, (%rax)
     42e:	00 00 	addb	%al, (%rax)
     430:	00 00 	addb	%al, (%rax)
     432:	00 00 	addb	%al, (%rax)
     434:	00 00 	addb	%al, (%rax)
     436:	00 00 	addb	%al, (%rax)
     438:	0d 02 00 00 10 	orl	$268435458, %eax
     43d:	00 00 	addb	%al, (%rax)
     43f:	00 00 	addb	%al, (%rax)
     441:	00 00 	addb	%al, (%rax)
     443:	00 00 	addb	%al, (%rax)
     445:	00 00 	addb	%al, (%rax)
     447:	00 00 	addb	%al, (%rax)
     449:	00 00 	addb	%al, (%rax)
     44b:	00 00 	addb	%al, (%rax)
     44d:	00 00 	addb	%al, (%rax)
     44f:	00 4d 02 	addb	%cl, 2(%rbp)
     452:	00 00 	addb	%al, (%rax)
     454:	10 00 	adcb	%al, (%rax)
     456:	00 00 	addb	%al, (%rax)
     458:	00 00 	addb	%al, (%rax)
     45a:	00 00 	addb	%al, (%rax)
     45c:	00 00 	addb	%al, (%rax)
     45e:	00 00 	addb	%al, (%rax)
     460:	00 00 	addb	%al, (%rax)
     462:	00 00 	addb	%al, (%rax)
     464:	00 00 	addb	%al, (%rax)
     466:	00 00 	addb	%al, (%rax)
     468:	57 	pushq	%rdi
     469:	02 00 	addb	(%rax), %al
     46b:	00 12 	addb	%dl, (%rdx)
     46d:	00 05 00 94 07 00 	addb	%al, 496640(%rip)
     473:	00 00 	addb	%al, (%rax)
     475:	00 00 	addb	%al, (%rax)
     477:	00 f7 	addb	%dh, %bh
     479:	05 00 00 00 00 	addl	$0, %eax
     47e:	00 00 	addb	%al, (%rax)
     480:	64 02 00 	addb	%fs:(%rax), %al
     483:	00 10 	addb	%dl, (%rax)
     485:	00 00 	addb	%al, (%rax)
     487:	00 00 	addb	%al, (%rax)
     489:	00 00 	addb	%al, (%rax)
     48b:	00 00 	addb	%al, (%rax)
     48d:	00 00 	addb	%al, (%rax)
     48f:	00 00 	addb	%al, (%rax)
     491:	00 00 	addb	%al, (%rax)
     493:	00 00 	addb	%al, (%rax)
     495:	00 00 	addb	%al, (%rax)
     497:	00 ac 02 00 00 22 00 	addb	%ch, 2228224(%rdx,%rax)
     49e:	0e  <unknown>
     49f:	00 00 	addb	%al, (%rax)
     4a1:	00 00 	addb	%al, (%rax)
     4a3:	00 00 	addb	%al, (%rax)
     4a5:	00 00 	addb	%al, (%rax)
     4a7:	00 58 00 	addb	%bl, (%rax)
     4aa:	00 00 	addb	%al, (%rax)
     4ac:	00 00 	addb	%al, (%rax)
     4ae:	00 00 	addb	%al, (%rax)
     4b0:	48 03 00 	addq	(%rax), %rax
     4b3:	00 12 	addb	%dl, (%rdx)
     4b5:	00 05 00 8b 0d 00 	addb	%al, 887552(%rip)
     4bb:	00 00 	addb	%al, (%rax)
     4bd:	00 00 	addb	%al, (%rax)
     4bf:	00 b2 01 00 00 00 	addb	%dh, 1(%rdx)
     4c5:	00 00 	addb	%al, (%rax)
     4c7:	00 58 03 	addb	%bl, 3(%rax)
     4ca:	00 00 	addb	%al, (%rax)
     4cc:	10 00 	adcb	%al, (%rax)
     4ce:	00 00 	addb	%al, (%rax)
     4d0:	00 00 	addb	%al, (%rax)
     4d2:	00 00 	addb	%al, (%rax)
     4d4:	00 00 	addb	%al, (%rax)
     4d6:	00 00 	addb	%al, (%rax)
     4d8:	00 00 	addb	%al, (%rax)
     4da:	00 00 	addb	%al, (%rax)
     4dc:	00 00 	addb	%al, (%rax)
     4de:	00 00 	addb	%al, (%rax)
     4e0:	61  <unknown>
     4e1:	03 00 	addl	(%rax), %eax
     4e3:	00 10 	addb	%dl, (%rax)
     4e5:	00 00 	addb	%al, (%rax)
     4e7:	00 00 	addb	%al, (%rax)
     4e9:	00 00 	addb	%al, (%rax)
     4eb:	00 00 	addb	%al, (%rax)
     4ed:	00 00 	addb	%al, (%rax)
     4ef:	00 00 	addb	%al, (%rax)
     4f1:	00 00 	addb	%al, (%rax)
     4f3:	00 00 	addb	%al, (%rax)
     4f5:	00 00 	addb	%al, (%rax)
     4f7:	00 6e 03 	addb	%ch, 3(%rsi)
     4fa:	00 00 	addb	%al, (%rax)
     4fc:	10 00 	adcb	%al, (%rax)
     4fe:	00 00 	addb	%al, (%rax)
     500:	00 00 	addb	%al, (%rax)
     502:	00 00 	addb	%al, (%rax)
     504:	00 00 	addb	%al, (%rax)
     506:	00 00 	addb	%al, (%rax)
     508:	00 00 	addb	%al, (%rax)
     50a:	00 00 	addb	%al, (%rax)
     50c:	00 00 	addb	%al, (%rax)
     50e:	00 00 	addb	%al, (%rax)
     510:	98 	cwtl
     511:	03 00 	addl	(%rax), %eax
     513:	00 22 	addb	%ah, (%rdx)
     515:	00 0d 00 00 00 00 	addb	%cl, (%rip)
     51b:	00 00 	addb	%al, (%rax)
     51d:	00 00 	addb	%al, (%rax)
     51f:	00 0e 	addb	%cl, (%rsi)
     521:	00 00 	addb	%al, (%rax)
     523:	00 00 	addb	%al, (%rax)
     525:	00 00 	addb	%al, (%rax)
     527:	00 ca 	addb	%cl, %dl
     529:	03 00 	addl	(%rax), %eax
     52b:	00 10 	addb	%dl, (%rax)
     52d:	00 00 	addb	%al, (%rax)
     52f:	00 00 	addb	%al, (%rax)
     531:	00 00 	addb	%al, (%rax)
     533:	00 00 	addb	%al, (%rax)
     535:	00 00 	addb	%al, (%rax)
     537:	00 00 	addb	%al, (%rax)
     539:	00 00 	addb	%al, (%rax)
     53b:	00 00 	addb	%al, (%rax)
     53d:	00 00 	addb	%al, (%rax)
     53f:	00 e2 	addb	%ah, %dl
     541:	03 00 	addl	(%rax), %eax
     543:	00 10 	addb	%dl, (%rax)
     545:	02 00 	addb	(%rax), %al
     547:	00 00 	addb	%al, (%rax)
     549:	00 00 	addb	%al, (%rax)
     54b:	00 00 	addb	%al, (%rax)
     54d:	00 00 	addb	%al, (%rax)
     54f:	00 00 	addb	%al, (%rax)
     551:	00 00 	addb	%al, (%rax)
     553:	00 00 	addb	%al, (%rax)
     555:	00 00 	addb	%al, (%rax)
     557:	00 ef 	addb	%ch, %bh
     559:	03 00 	addl	(%rax), %eax
     55b:	00 10 	addb	%dl, (%rax)
     55d:	00 00 	addb	%al, (%rax)
     55f:	00 00 	addb	%al, (%rax)
     561:	00 00 	addb	%al, (%rax)
     563:	00 00 	addb	%al, (%rax)
     565:	00 00 	addb	%al, (%rax)
     567:	00 00 	addb	%al, (%rax)
     569:	00 00 	addb	%al, (%rax)
     56b:	00 00 	addb	%al, (%rax)
     56d:	00 00 	addb	%al, (%rax)
     56f:	00 07 	addb	%al, (%rdi)
     571:	04 00 	addb	$0, %al
     573:	00 10 	addb	%dl, (%rax)
     575:	00 00 	addb	%al, (%rax)
     577:	00 00 	addb	%al, (%rax)
     579:	00 00 	addb	%al, (%rax)
     57b:	00 00 	addb	%al, (%rax)
     57d:	00 00 	addb	%al, (%rax)
     57f:	00 00 	addb	%al, (%rax)
     581:	00 00 	addb	%al, (%rax)
     583:	00 00 	addb	%al, (%rax)
     585:	00 00 	addb	%al, (%rax)
     587:	00  <unknown>
Disassembly of section .strtab:
.strtab:
       0:	00 5f 5a 	addb	%bl, 90(%rdi)
       3:	53 	pushq	%rbx
       4:	74 4c 	je	76 <.strtab+0x52>
       6:	31 39 	xorl	%edi, (%rcx)
       8:	70 69 	jo	105 <.strtab+0x73>
       a:	65 63  <unknown>
       c:	65 77 69 	ja	105 <.strtab+0x78>
       f:	73 65 	jae	101 <.strtab+0x76>
      11:	5f 	popq	%rdi
      12:	63  <unknown>
      13:	6f 	outsl	(%rsi), %dx
      14:	6e 	outsb	(%rsi), %dx
      15:	73 74 	jae	116 <.strtab+0x8b>
      17:	72 75 	jb	117 <.strtab+0x8e>
      19:	63  <unknown>
      1a:	74 00 	je	0 <.strtab+0x1c>
      1c:	5f 	popq	%rdi
      1d:	5a 	popq	%rdx
      1e:	53 	pushq	%rbx
      1f:	74 4c 	je	76 <.strtab+0x6d>
      21:	38 5f 5f 	cmpb	%bl, 95(%rdi)
      24:	69 6f 69 6e 69 74 00 	imull	$7629166, 105(%rdi), %ebp
      2b:	5f 	popq	%rdi
      2c:	5a 	popq	%rdx
      2d:	53 	pushq	%rbx
      2e:	74 4c 	je	76 <.strtab+0x7c>
      30:	31 33 	xorl	%esi, (%rbx)
      32:	61  <unknown>
      33:	6c 	insb	%dx, %es:(%rdi)
      34:	6c 	insb	%dx, %es:(%rdi)
      35:	6f 	outsl	(%rsi), %dx
      36:	63  <unknown>
      37:	61  <unknown>
      38:	74 6f 	je	111 <.strtab+0xa9>
      3a:	72 5f 	jb	95 <.strtab+0x9b>
      3c:	61  <unknown>
      3d:	72 67 	jb	103 <.strtab+0xa6>
      3f:	00 5f 5a 	addb	%bl, 90(%rdi)
      42:	53 	pushq	%rbx
      43:	74 4c 	je	76 <.strtab+0x91>
      45:	36 69 67 6e 6f 72 65 00 	imull	$6648431, %ss:110(%rdi), %esp
      4d:	5f 	popq	%rdi
      4e:	5a 	popq	%rdx
      4f:	4c 32 6e 31 	xorb	49(%rsi), %r13b
      53:	00 5f 5a 	addb	%bl, 90(%rdi)
      56:	4c 32 6e 32 	xorb	50(%rsi), %r13b
      5a:	00 5f 5a 	addb	%bl, 90(%rdi)
      5d:	4c 39 4d 61 	cmpq	%r9, 97(%rbp)
      61:	78 46 	js	70 <.strtab+0xa9>
      63:	65 68 6c 65 72 00 	pushq	$7497068
      69:	5f 	popq	%rdi
      6a:	5a 	popq	%rdx
      6b:	4c 31 37 	xorq	%r14, (%rdi)
      6e:	41 6e 	outsb	(%rsi), %dx
      70:	7a 61 	jp	97 <.strtab+0xd3>
      72:	68 6c 4e 75 6c 	pushq	$1819627116
      77:	6c 	insb	%dx, %es:(%rdi)
      78:	53 	pushq	%rbx
      79:	74 65 	je	101 <.strtab+0xe0>
      7b:	6c 	insb	%dx, %es:(%rdi)
      7c:	6c 	insb	%dx, %es:(%rdi)
      7d:	65 6e 	outsb	%gs:(%rsi), %dx
      7f:	00 5f 5a 	addb	%bl, 90(%rdi)
      82:	4c 36 	ss
      84:	49 73 43 	jae	67 <.strtab+0xca>
      87:	6f 	outsl	(%rsi), %dx
      88:	6d 	insl	%dx, %es:(%rdi)
      89:	70 00 	jo	0 <.strtab+0x8b>
      8b:	5f 	popq	%rdi
      8c:	5a 	popq	%rdx
      8d:	4c 34 5f 	xorb	$95, %al
      90:	42 73 70 	jae	112 <.strtab+0x103>
      93:	00 5f 5a 	addb	%bl, 90(%rdi)
      96:	34 31 	xorb	$49, %al
      98:	5f 	popq	%rdi
      99:	5f 	popq	%rdi
      9a:	73 74 	jae	116 <.strtab+0x110>
      9c:	61  <unknown>
      9d:	74 69 	je	105 <.strtab+0x108>
      9f:	63  <unknown>
      a0:	5f 	popq	%rdi
      a1:	69 6e 69 74 69 61 6c 	imull	$1818323316, 105(%rsi), %ebp
      a8:	69 7a 61 74 69 6f 6e 	imull	$1852795252, 97(%rdx), %edi
      af:	5f 	popq	%rdi
      b0:	61  <unknown>
      b1:	6e 	outsb	(%rsi), %dx
      b2:	64 5f 	popq	%rdi
      b4:	64 65 73 74 	jae	116 <.strtab+0x12c>
      b8:	72 75 	jb	117 <.strtab+0x12f>
      ba:	63  <unknown>
      bb:	74 69 	je	105 <.strtab+0x126>
      bd:	6f 	outsl	(%rsi), %dx
      be:	6e 	outsb	(%rsi), %dx
      bf:	5f 	popq	%rdi
      c0:	30 69 69 	xorb	%ch, 105(%rcx)
      c3:	00 5f 47 	addb	%bl, 71(%rdi)
      c6:	4c 4f  <unknown>
      c8:	42 41  <unknown>
      ca:	4c 5f 	popq	%rdi
      cc:	5f 	popq	%rdi
      cd:	73 75 	jae	117 <.strtab+0x144>
      cf:	62  <unknown>
      d0:	5f 	popq	%rdi
      d1:	49 5f 	popq	%r15
      d3:	75 6e 	jne	110 <.strtab+0x143>
      d5:	69 74 2e 63 70 70 00 5f 	imull	$1593864304, 99(%rsi,%rbp), %esi
      dd:	5a 	popq	%rdx
      de:	53 	pushq	%rbx
      df:	74 31 	je	49 <.strtab+0x112>
      e1:	31 73 65 	xorl	%esi, 101(%rbx)
      e4:	74 69 	je	105 <.strtab+0x14f>
      e6:	6f 	outsl	(%rsi), %dx
      e7:	73 66 	jae	102 <.strtab+0x14f>
      e9:	6c 	insb	%dx, %es:(%rdi)
      ea:	61  <unknown>
      eb:	67 73 53 	jae	83 <.strtab+0x141>
      ee:	74 31 	je	49 <.strtab+0x121>
      f0:	33 5f 49 	xorl	73(%rdi), %ebx
      f3:	6f 	outsl	(%rsi), %dx
      f4:	73 5f 	jae	95 <.strtab+0x155>
      f6:	46 6d 	insl	%dx, %es:(%rdi)
      f8:	74 66 	je	102 <.strtab+0x160>
      fa:	6c 	insb	%dx, %es:(%rdi)
      fb:	61  <unknown>
      fc:	67 73 00 	jae	0 <.strtab+0xff>
      ff:	5f 	popq	%rdi
     100:	5a 	popq	%rdx
     101:	53 	pushq	%rbx
     102:	74 34 	je	52 <.strtab+0x138>
     104:	73 65 	jae	101 <.strtab+0x16b>
     106:	74 77 	je	119 <.strtab+0x17f>
     108:	69 00 55 6e 65 6e 	imull	$1852141141, (%rax), %eax
     10e:	64 6c 	insb	%dx, %es:(%rdi)
     110:	69 63 68 00 41 6e 7a 	imull	$2054045952, 104(%rbx), %esp
     117:	61  <unknown>
     118:	68 6c 42 65 69 	pushq	$1768243820
     11d:	73 70 	jae	112 <.strtab+0x18f>
     11f:	69 65 6c 65 00 5f 5a 	imull	$1516175461, 108(%rbp), %esp
     126:	35 53 74 61 72 	xorl	$1918989395, %eax
     12b:	74 69 	je	105 <.strtab+0x196>
     12d:	52 	pushq	%rdx
     12e:	64 53 	pushq	%rbx
     130:	5f 	popq	%rdi
     131:	53 	pushq	%rbx
     132:	5f 	popq	%rdi
     133:	00 5f 47 	addb	%bl, 71(%rdi)
     136:	4c 4f  <unknown>
     138:	42 41  <unknown>
     13a:	4c 5f 	popq	%rdi
     13c:	4f 46  <unknown>
     13e:	46 53 	pushq	%rbx
     140:	45 54 	pushq	%r12
     142:	5f 	popq	%rdi
     143:	54 	pushq	%rsp
     144:	41 42  <unknown>
     146:	4c 45  <unknown>
     148:	5f 	popq	%rdi
     149:	00 73 71 	addb	%dh, 113(%rbx)
     14c:	72 74 	jb	116 <.strtab+0x1c2>
     14e:	00 5f 5a 	addb	%bl, 90(%rdi)
     151:	53 	pushq	%rbx
     152:	74 34 	je	52 <.strtab+0x188>
     154:	63  <unknown>
     155:	65 72 72 	jb	114 <.strtab+0x1ca>
     158:	00 5f 5a 	addb	%bl, 90(%rdi)
     15b:	53 	pushq	%rbx
     15c:	74 6c 	je	108 <.strtab+0x1ca>
     15e:	73 49 	jae	73 <.strtab+0x1a9>
     160:	53 	pushq	%rbx
     161:	74 31 	je	49 <.strtab+0x194>
     163:	31 63 68 	xorl	%esp, 104(%rbx)
     166:	61  <unknown>
     167:	72 5f 	jb	95 <.strtab+0x1c8>
     169:	74 72 	je	114 <.strtab+0x1dd>
     16b:	61  <unknown>
     16c:	69 74 73 49 63 45 45 52 	imull	$1380271459, 73(%rbx,%rsi,2), %esi
     174:	53 	pushq	%rbx
     175:	74 31 	je	49 <.strtab+0x1a8>
     177:	33 62 61 	xorl	97(%rdx), %esp
     17a:	73 69 	jae	105 <.strtab+0x1e5>
     17c:	63  <unknown>
     17d:	5f 	popq	%rdi
     17e:	6f 	outsl	(%rsi), %dx
     17f:	73 74 	jae	116 <.strtab+0x1f5>
     181:	72 65 	jb	101 <.strtab+0x1e8>
     183:	61  <unknown>
     184:	6d 	insl	%dx, %es:(%rdi)
     185:	49 63 54 5f 45 	movslq	69(%r15,%rbx,2), %rdx
     18a:	53 	pushq	%rbx
     18b:	35 5f 50 4b 63 	xorl	$1665880159, %eax
     190:	00 5f 5a 	addb	%bl, 90(%rdi)
     193:	4e 53 	pushq	%rbx
     195:	6f 	outsl	(%rsi), %dx
     196:	6c 	insb	%dx, %es:(%rdi)
     197:	73 45 	jae	69 <.strtab+0x1de>
     199:	69 00 5f 5a 53 74 	imull	$1951619679, (%rax), %eax
     19f:	34 65 	xorb	$101, %al
     1a1:	6e 	outsb	(%rsi), %dx
     1a2:	64 6c 	insb	%dx, %es:(%rdi)
     1a4:	49 63 53 74 	movslq	116(%r11), %rdx
     1a8:	31 31 	xorl	%esi, (%rcx)
     1aa:	63  <unknown>
     1ab:	68 61 72 5f 74 	pushq	$1952412257
     1b0:	72 61 	jb	97 <.strtab+0x213>
     1b2:	69 74 73 49 63 45 45 52 	imull	$1380271459, 73(%rbx,%rsi,2), %esi
     1ba:	53 	pushq	%rbx
     1bb:	74 31 	je	49 <.strtab+0x1ee>
     1bd:	33 62 61 	xorl	97(%rdx), %esp
     1c0:	73 69 	jae	105 <.strtab+0x22b>
     1c2:	63  <unknown>
     1c3:	5f 	popq	%rdi
     1c4:	6f 	outsl	(%rsi), %dx
     1c5:	73 74 	jae	116 <.strtab+0x23b>
     1c7:	72 65 	jb	101 <.strtab+0x22e>
     1c9:	61  <unknown>
     1ca:	6d 	insl	%dx, %es:(%rdi)
     1cb:	49 54 	pushq	%r12
     1cd:	5f 	popq	%rdi
     1ce:	54 	pushq	%rsp
     1cf:	30 5f 45 	xorb	%bl, 69(%rdi)
     1d2:	53 	pushq	%rbx
     1d3:	36 5f 	popq	%rdi
     1d5:	00 5f 5a 	addb	%bl, 90(%rdi)
     1d8:	4e 53 	pushq	%rbx
     1da:	6f 	outsl	(%rsi), %dx
     1db:	6c 	insb	%dx, %es:(%rdi)
     1dc:	73 45 	jae	69 <.strtab+0x223>
     1de:	50 	pushq	%rax
     1df:	46 52 	pushq	%rdx
     1e1:	53 	pushq	%rbx
     1e2:	6f 	outsl	(%rsi), %dx
     1e3:	53 	pushq	%rbx
     1e4:	5f 	popq	%rdi
     1e5:	45 00 5f 5a 	addb	%r11b, 90(%r15)
     1e9:	32 31 	xorb	(%rcx), %dh
     1eb:	54 	pushq	%rsp
     1ec:	65 73 74 	jae	116 <.strtab+0x263>
     1ef:	65 52 	pushq	%rdx
     1f1:	65 65 6c 	insb	%dx, %es:(%rdi)
     1f4:	6c 	insb	%dx, %es:(%rdi)
     1f5:	65 4e 75 6c 	jne	108 <.strtab+0x265>
     1f9:	6c 	insb	%dx, %es:(%rdi)
     1fa:	73 74 	jae	116 <.strtab+0x270>
     1fc:	65 6c 	insb	%dx, %es:(%rdi)
     1fe:	6c 	insb	%dx, %es:(%rdi)
     1ff:	65 64 64 00 5f 5a 	addb	%bl, %fs:90(%rdi)
     205:	53 	pushq	%rbx
     206:	74 34 	je	52 <.strtab+0x23c>
     208:	63  <unknown>
     209:	6f 	outsl	(%rsi), %dx
     20a:	75 74 	jne	116 <.strtab+0x280>
     20c:	00 5f 5a 	addb	%bl, 90(%rdi)
     20f:	53 	pushq	%rbx
     210:	74 6c 	je	108 <.strtab+0x27e>
     212:	73 49 	jae	73 <.strtab+0x25d>
     214:	63  <unknown>
     215:	53 	pushq	%rbx
     216:	74 31 	je	49 <.strtab+0x249>
     218:	31 63 68 	xorl	%esp, 104(%rbx)
     21b:	61  <unknown>
     21c:	72 5f 	jb	95 <.strtab+0x27d>
     21e:	74 72 	je	114 <.strtab+0x292>
     220:	61  <unknown>
     221:	69 74 73 49 63 45 45 52 	imull	$1380271459, 73(%rbx,%rsi,2), %esi
     229:	53 	pushq	%rbx
     22a:	74 31 	je	49 <.strtab+0x25d>
     22c:	33 62 61 	xorl	97(%rdx), %esp
     22f:	73 69 	jae	105 <.strtab+0x29a>
     231:	63  <unknown>
     232:	5f 	popq	%rdi
     233:	6f 	outsl	(%rsi), %dx
     234:	73 74 	jae	116 <.strtab+0x2aa>
     236:	72 65 	jb	101 <.strtab+0x29d>
     238:	61  <unknown>
     239:	6d 	insl	%dx, %es:(%rdi)
     23a:	49 54 	pushq	%r12
     23c:	5f 	popq	%rdi
     23d:	54 	pushq	%rsp
     23e:	30 5f 45 	xorb	%bl, 69(%rdi)
     241:	53 	pushq	%rbx
     242:	36 5f 	popq	%rdi
     244:	53 	pushq	%rbx
     245:	74 35 	je	53 <.strtab+0x27c>
     247:	5f 	popq	%rdi
     248:	53 	pushq	%rbx
     249:	65 74 77 	je	119 <.strtab+0x2c3>
     24c:	00 5f 5a 	addb	%bl, 90(%rdi)
     24f:	4e 53 	pushq	%rbx
     251:	6f 	outsl	(%rsi), %dx
     252:	6c 	insb	%dx, %es:(%rdi)
     253:	73 45 	jae	69 <.strtab+0x29a>
     255:	64 00 5f 5a 	addb	%bl, %fs:90(%rdi)
     259:	35 54 65 73 74 	xorl	$1953719636, %eax
     25e:	73 69 	jae	105 <.strtab+0x2c9>
     260:	62  <unknown>
     261:	64 64 00 5f 5a 	addb	%bl, %fs:90(%rdi)
     266:	53 	pushq	%rbx
     267:	74 6c 	je	108 <.strtab+0x2d5>
     269:	73 49 	jae	73 <.strtab+0x2b4>
     26b:	63  <unknown>
     26c:	53 	pushq	%rbx
     26d:	74 31 	je	49 <.strtab+0x2a0>
     26f:	31 63 68 	xorl	%esp, 104(%rbx)
     272:	61  <unknown>
     273:	72 5f 	jb	95 <.strtab+0x2d4>
     275:	74 72 	je	114 <.strtab+0x2e9>
     277:	61  <unknown>
     278:	69 74 73 49 63 45 45 52 	imull	$1380271459, 73(%rbx,%rsi,2), %esi
     280:	53 	pushq	%rbx
     281:	74 31 	je	49 <.strtab+0x2b4>
     283:	33 62 61 	xorl	97(%rdx), %esp
     286:	73 69 	jae	105 <.strtab+0x2f1>
     288:	63  <unknown>
     289:	5f 	popq	%rdi
     28a:	6f 	outsl	(%rsi), %dx
     28b:	73 74 	jae	116 <.strtab+0x301>
     28d:	72 65 	jb	101 <.strtab+0x2f4>
     28f:	61  <unknown>
     290:	6d 	insl	%dx, %es:(%rdi)
     291:	49 54 	pushq	%r12
     293:	5f 	popq	%rdi
     294:	54 	pushq	%rsp
     295:	30 5f 45 	xorb	%bl, 69(%rdi)
     298:	53 	pushq	%rbx
     299:	36 5f 	popq	%rdi
     29b:	53 	pushq	%rbx
     29c:	74 31 	je	49 <.strtab+0x2cf>
     29e:	32 5f 53 	xorb	83(%rdi), %bl
     2a1:	65 74 69 	je	105 <.strtab+0x30d>
     2a4:	6f 	outsl	(%rsi), %dx
     2a5:	73 66 	jae	102 <.strtab+0x30d>
     2a7:	6c 	insb	%dx, %es:(%rdi)
     2a8:	61  <unknown>
     2a9:	67 73 00 	jae	0 <.strtab+0x2ac>
     2ac:	5f 	popq	%rdi
     2ad:	5a 	popq	%rdx
     2ae:	53 	pushq	%rbx
     2af:	74 34 	je	52 <.strtab+0x2e5>
     2b1:	73 77 	jae	119 <.strtab+0x32a>
     2b3:	61  <unknown>
     2b4:	70 49 	jo	73 <.strtab+0x2ff>
     2b6:	64 45 4e  <unknown>
     2b9:	53 	pushq	%rbx
     2ba:	74 39 	je	57 <.strtab+0x2f5>
     2bc:	65 6e 	outsb	%gs:(%rsi), %dx
     2be:	61  <unknown>
     2bf:	62  <unknown>
     2c0:	6c 	insb	%dx, %es:(%rdi)
     2c1:	65 5f 	popq	%rdi
     2c3:	69 66 49 58 73 72 53 	imull	$1400009560, 73(%rsi), %esp
     2ca:	74 36 	je	54 <.strtab+0x302>
     2cc:	5f 	popq	%rdi
     2cd:	5f 	popq	%rdi
     2ce:	61  <unknown>
     2cf:	6e 	outsb	(%rsi), %dx
     2d0:	64 5f 	popq	%rdi
     2d2:	49 4a  <unknown>
     2d4:	53 	pushq	%rbx
     2d5:	74 36 	je	54 <.strtab+0x30d>
     2d7:	5f 	popq	%rdi
     2d8:	5f 	popq	%rdi
     2d9:	6e 	outsb	(%rsi), %dx
     2da:	6f 	outsl	(%rsi), %dx
     2db:	74 5f 	je	95 <.strtab+0x33c>
     2dd:	49 53 	pushq	%r11
     2df:	74 31 	je	49 <.strtab+0x312>
     2e1:	35 5f 5f 69 73 	xorl	$1936285535, %eax
     2e6:	5f 	popq	%rdi
     2e7:	74 75 	je	117 <.strtab+0x35e>
     2e9:	70 6c 	jo	108 <.strtab+0x357>
     2eb:	65 5f 	popq	%rdi
     2ed:	6c 	insb	%dx, %es:(%rdi)
     2ee:	69 6b 65 49 54 5f 45 	imull	$1163875401, 101(%rbx), %ebp
     2f5:	45 53 	pushq	%r11
     2f7:	74 32 	je	50 <.strtab+0x32b>
     2f9:	31 69 73 	xorl	%ebp, 115(%rcx)
     2fc:	5f 	popq	%rdi
     2fd:	6d 	insl	%dx, %es:(%rdi)
     2fe:	6f 	outsl	(%rsi), %dx
     2ff:	76 65 	jbe	101 <.strtab+0x366>
     301:	5f 	popq	%rdi
     302:	63  <unknown>
     303:	6f 	outsl	(%rsi), %dx
     304:	6e 	outsb	(%rsi), %dx
     305:	73 74 	jae	116 <.strtab+0x37b>
     307:	72 75 	jb	117 <.strtab+0x37e>
     309:	63  <unknown>
     30a:	74 69 	je	105 <.strtab+0x375>
     30c:	62  <unknown>
     30d:	6c 	insb	%dx, %es:(%rdi)
     30e:	65 49 53 	pushq	%r11
     311:	34 5f 	xorb	$95, %al
     313:	45 53 	pushq	%r11
     315:	74 31 	je	49 <.strtab+0x348>
     317:	38 69 73 	cmpb	%ch, 115(%rcx)
     31a:	5f 	popq	%rdi
     31b:	6d 	insl	%dx, %es:(%rdi)
     31c:	6f 	outsl	(%rsi), %dx
     31d:	76 65 	jbe	101 <.strtab+0x384>
     31f:	5f 	popq	%rdi
     320:	61  <unknown>
     321:	73 73 	jae	115 <.strtab+0x396>
     323:	69 67 6e 61 62 6c 65 	imull	$1701601889, 110(%rdi), %esp
     32a:	49 53 	pushq	%r11
     32c:	34 5f 	xorb	$95, %al
     32e:	45 45  <unknown>
     330:	45 35 76 61 6c 75 	xorl	$1970037110, %eax
     336:	65 45 76 45 	jbe	69 <.strtab+0x37f>
     33a:	34 74 	xorb	$116, %al
     33c:	79 70 	jns	112 <.strtab+0x3ae>
     33e:	65 45 52 	pushq	%r10
     341:	53 	pushq	%rbx
     342:	34 5f 	xorb	$95, %al
     344:	53 	pushq	%rbx
     345:	45 5f 	popq	%r15
     347:	00 5f 5a 	addb	%bl, 90(%rdi)
     34a:	38 45 72 	cmpb	%al, 114(%rbp)
     34d:	67 65 62  <unknown>
     350:	6e 	outsb	(%rsi), %dx
     351:	69 73 69 62 64 64 00 	imull	$6579298, 105(%rbx), %esi
     358:	5f 	popq	%rdi
     359:	5a 	popq	%rdx
     35a:	53 	pushq	%rbx
     35b:	74 33 	je	51 <.strtab+0x390>
     35d:	63  <unknown>
     35e:	69 6e 00 5f 5a 4e 53 	imull	$1397643871, (%rsi), %ebp
     365:	69 33 67 65 74 45 	imull	$1165256039, (%rbx), %esi
     36b:	52 	pushq	%rdx
     36c:	63  <unknown>
     36d:	00 5f 5a 	addb	%bl, 90(%rdi)
     370:	4e 4b  <unknown>
     372:	53 	pushq	%rbx
     373:	74 39 	je	57 <.strtab+0x3ae>
     375:	62  <unknown>
     376:	61  <unknown>
     377:	73 69 	jae	105 <.strtab+0x3e2>
     379:	63  <unknown>
     37a:	5f 	popq	%rdi
     37b:	69 6f 73 49 63 53 74 	imull	$1951621961, 115(%rdi), %ebp
     382:	31 31 	xorl	%esi, (%rcx)
     384:	63  <unknown>
     385:	68 61 72 5f 74 	pushq	$1952412257
     38a:	72 61 	jb	97 <.strtab+0x3ed>
     38c:	69 74 73 49 63 45 45 6e 	imull	$1850033507, 73(%rbx,%rsi,2), %esi
     394:	74 45 	je	69 <.strtab+0x3db>
     396:	76 00 	jbe	0 <.strtab+0x398>
     398:	5f 	popq	%rdi
     399:	5a 	popq	%rdx
     39a:	53 	pushq	%rbx
     39b:	74 34 	je	52 <.strtab+0x3d1>
     39d:	6d 	insl	%dx, %es:(%rdi)
     39e:	6f 	outsl	(%rsi), %dx
     39f:	76 65 	jbe	101 <.strtab+0x406>
     3a1:	49 52 	pushq	%r10
     3a3:	64 45 4f  <unknown>
     3a6:	4e 53 	pushq	%rbx
     3a8:	74 31 	je	49 <.strtab+0x3db>
     3aa:	36 72 65 	jb	101 <.strtab+0x412>
     3ad:	6d 	insl	%dx, %es:(%rdi)
     3ae:	6f 	outsl	(%rsi), %dx
     3af:	76 65 	jbe	101 <.strtab+0x416>
     3b1:	5f 	popq	%rdi
     3b2:	72 65 	jb	101 <.strtab+0x419>
     3b4:	66 65 72 65 	jb	101 <.strtab+0x41d>
     3b8:	6e 	outsb	(%rsi), %dx
     3b9:	63  <unknown>
     3ba:	65 49 54 	pushq	%r12
     3bd:	5f 	popq	%rdi
     3be:	45 34 74 	xorb	$116, %al
     3c1:	79 70 	jns	112 <.strtab+0x433>
     3c3:	65 45 4f  <unknown>
     3c6:	53 	pushq	%rbx
     3c7:	32 5f 00 	xorb	(%rdi), %bl
     3ca:	5f 	popq	%rdi
     3cb:	5a 	popq	%rdx
     3cc:	4e 53 	pushq	%rbx
     3ce:	74 38 	je	56 <.strtab+0x408>
     3d0:	69 6f 73 5f 62 61 73 	imull	$1935762015, 115(%rdi), %ebp
     3d7:	65 34 49 	xorb	$73, %al
     3da:	6e 	outsb	(%rsi), %dx
     3db:	69 74 43 31 45 76 00 5f 	imull	$1593865797, 49(%rbx,%rax,2), %esi
     3e3:	5f 	popq	%rdi
     3e4:	64 73 6f 	jae	111 <.strtab+0x456>
     3e7:	5f 	popq	%rdi
     3e8:	68 61 6e 64 6c 	pushq	$1818521185
     3ed:	65 00 5f 5a 	addb	%bl, %gs:90(%rdi)
     3f1:	4e 53 	pushq	%rbx
     3f3:	74 38 	je	56 <.strtab+0x42d>
     3f5:	69 6f 73 5f 62 61 73 	imull	$1935762015, 115(%rdi), %ebp
     3fc:	65 34 49 	xorb	$73, %al
     3ff:	6e 	outsb	(%rsi), %dx
     400:	69 74 44 31 45 76 00 5f 	imull	$1593865797, 49(%rsp,%rax,2), %esi
     408:	5f 	popq	%rdi
     409:	63  <unknown>
     40a:	78 61 	js	97 <.strtab+0x46d>
     40c:	5f 	popq	%rdi
     40d:	61  <unknown>
     40e:	74 65 	je	101 <.strtab+0x475>
     410:	78 69 	js	105 <.strtab+0x47b>
     412:	74 00 	je	0 <.strtab+0x414>
Disassembly of section .shstrtab:
.shstrtab:
       0:	00 2e 	addb	%ch, (%rsi)
       2:	73 79 	jae	121 <.shstrtab+0x7d>
       4:	6d 	insl	%dx, %es:(%rdi)
       5:	74 61 	je	97 <.shstrtab+0x68>
       7:	62 00 2e 73  <unknown>
       b:	74 72 	je	114 <.shstrtab+0x7f>
       d:	74 61 	je	97 <.shstrtab+0x70>
       f:	62 00 2e 73  <unknown>
      13:	68 73 74 72 74 	pushq	$1953657971
      18:	61  <unknown>
      19:	62 00 2e 72  <unknown>
      1d:	65 6c 	insb	%dx, %es:(%rdi)
      1f:	61  <unknown>
      20:	2e 74 65 	je	101 <.shstrtab+0x88>
      23:	78 74 	js	116 <.shstrtab+0x99>
      25:	00 2e 	addb	%ch, (%rsi)
      27:	64 61  <unknown>
      29:	74 61 	je	97 <.shstrtab+0x8c>
      2b:	00 2e 	addb	%ch, (%rsi)
      2d:	62  <unknown>
      2e:	73 73 	jae	115 <.shstrtab+0xa3>
      30:	00 2e 	addb	%ch, (%rsi)
      32:	72 65 	jb	101 <.shstrtab+0x99>
      34:	6c 	insb	%dx, %es:(%rdi)
      35:	61  <unknown>
      36:	2e 72 6f 	jb	111 <.shstrtab+0xa8>
      39:	64 61  <unknown>
      3b:	74 61 	je	97 <.shstrtab+0x9e>
      3d:	00 2e 	addb	%ch, (%rsi)
      3f:	74 65 	je	101 <.shstrtab+0xa6>
      41:	78 74 	js	116 <.shstrtab+0xb7>
      43:	2e 5f 	popq	%rdi
      45:	5a 	popq	%rdx
      46:	53 	pushq	%rbx
      47:	74 31 	je	49 <.shstrtab+0x7a>
      49:	31 73 65 	xorl	%esi, 101(%rbx)
      4c:	74 69 	je	105 <.shstrtab+0xb7>
      4e:	6f 	outsl	(%rsi), %dx
      4f:	73 66 	jae	102 <.shstrtab+0xb7>
      51:	6c 	insb	%dx, %es:(%rdi)
      52:	61  <unknown>
      53:	67 73 53 	jae	83 <.shstrtab+0xa9>
      56:	74 31 	je	49 <.shstrtab+0x89>
      58:	33 5f 49 	xorl	73(%rdi), %ebx
      5b:	6f 	outsl	(%rsi), %dx
      5c:	73 5f 	jae	95 <.shstrtab+0xbd>
      5e:	46 6d 	insl	%dx, %es:(%rdi)
      60:	74 66 	je	102 <.shstrtab+0xc8>
      62:	6c 	insb	%dx, %es:(%rdi)
      63:	61  <unknown>
      64:	67 73 00 	jae	0 <.shstrtab+0x67>
      67:	2e 74 65 	je	101 <.shstrtab+0xcf>
      6a:	78 74 	js	116 <.shstrtab+0xe0>
      6c:	2e 5f 	popq	%rdi
      6e:	5a 	popq	%rdx
      6f:	53 	pushq	%rbx
      70:	74 34 	je	52 <.shstrtab+0xa6>
      72:	73 65 	jae	101 <.shstrtab+0xd9>
      74:	74 77 	je	119 <.shstrtab+0xed>
      76:	69 00 2e 74 65 78 	imull	$2019914798, (%rax), %eax
      7c:	74 2e 	je	46 <.shstrtab+0xac>
      7e:	5f 	popq	%rdi
      7f:	5a 	popq	%rdx
      80:	53 	pushq	%rbx
      81:	74 34 	je	52 <.shstrtab+0xb7>
      83:	6d 	insl	%dx, %es:(%rdi)
      84:	6f 	outsl	(%rsi), %dx
      85:	76 65 	jbe	101 <.shstrtab+0xec>
      87:	49 52 	pushq	%r10
      89:	64 45 4f  <unknown>
      8c:	4e 53 	pushq	%rbx
      8e:	74 31 	je	49 <.shstrtab+0xc1>
      90:	36 72 65 	jb	101 <.shstrtab+0xf8>
      93:	6d 	insl	%dx, %es:(%rdi)
      94:	6f 	outsl	(%rsi), %dx
      95:	76 65 	jbe	101 <.shstrtab+0xfc>
      97:	5f 	popq	%rdi
      98:	72 65 	jb	101 <.shstrtab+0xff>
      9a:	66 65 72 65 	jb	101 <.shstrtab+0x103>
      9e:	6e 	outsb	(%rsi), %dx
      9f:	63  <unknown>
      a0:	65 49 54 	pushq	%r12
      a3:	5f 	popq	%rdi
      a4:	45 34 74 	xorb	$116, %al
      a7:	79 70 	jns	112 <.shstrtab+0x119>
      a9:	65 45 4f  <unknown>
      ac:	53 	pushq	%rbx
      ad:	32 5f 00 	xorb	(%rdi), %bl
      b0:	2e 72 65 	jb	101 <.shstrtab+0x118>
      b3:	6c 	insb	%dx, %es:(%rdi)
      b4:	61  <unknown>
      b5:	2e 74 65 	je	101 <.shstrtab+0x11d>
      b8:	78 74 	js	116 <.shstrtab+0x12e>
      ba:	2e 5f 	popq	%rdi
      bc:	5a 	popq	%rdx
      bd:	53 	pushq	%rbx
      be:	74 34 	je	52 <.shstrtab+0xf4>
      c0:	73 77 	jae	119 <.shstrtab+0x139>
      c2:	61  <unknown>
      c3:	70 49 	jo	73 <.shstrtab+0x10e>
      c5:	64 45 4e  <unknown>
      c8:	53 	pushq	%rbx
      c9:	74 39 	je	57 <.shstrtab+0x104>
      cb:	65 6e 	outsb	%gs:(%rsi), %dx
      cd:	61  <unknown>
      ce:	62  <unknown>
      cf:	6c 	insb	%dx, %es:(%rdi)
      d0:	65 5f 	popq	%rdi
      d2:	69 66 49 58 73 72 53 	imull	$1400009560, 73(%rsi), %esp
      d9:	74 36 	je	54 <.shstrtab+0x111>
      db:	5f 	popq	%rdi
      dc:	5f 	popq	%rdi
      dd:	61  <unknown>
      de:	6e 	outsb	(%rsi), %dx
      df:	64 5f 	popq	%rdi
      e1:	49 4a  <unknown>
      e3:	53 	pushq	%rbx
      e4:	74 36 	je	54 <.shstrtab+0x11c>
      e6:	5f 	popq	%rdi
      e7:	5f 	popq	%rdi
      e8:	6e 	outsb	(%rsi), %dx
      e9:	6f 	outsl	(%rsi), %dx
      ea:	74 5f 	je	95 <.shstrtab+0x14b>
      ec:	49 53 	pushq	%r11
      ee:	74 31 	je	49 <.shstrtab+0x121>
      f0:	35 5f 5f 69 73 	xorl	$1936285535, %eax
      f5:	5f 	popq	%rdi
      f6:	74 75 	je	117 <.shstrtab+0x16d>
      f8:	70 6c 	jo	108 <.shstrtab+0x166>
      fa:	65 5f 	popq	%rdi
      fc:	6c 	insb	%dx, %es:(%rdi)
      fd:	69 6b 65 49 54 5f 45 	imull	$1163875401, 101(%rbx), %ebp
     104:	45 53 	pushq	%r11
     106:	74 32 	je	50 <.shstrtab+0x13a>
     108:	31 69 73 	xorl	%ebp, 115(%rcx)
     10b:	5f 	popq	%rdi
     10c:	6d 	insl	%dx, %es:(%rdi)
     10d:	6f 	outsl	(%rsi), %dx
     10e:	76 65 	jbe	101 <.shstrtab+0x175>
     110:	5f 	popq	%rdi
     111:	63  <unknown>
     112:	6f 	outsl	(%rsi), %dx
     113:	6e 	outsb	(%rsi), %dx
     114:	73 74 	jae	116 <.shstrtab+0x18a>
     116:	72 75 	jb	117 <.shstrtab+0x18d>
     118:	63  <unknown>
     119:	74 69 	je	105 <.shstrtab+0x184>
     11b:	62  <unknown>
     11c:	6c 	insb	%dx, %es:(%rdi)
     11d:	65 49 53 	pushq	%r11
     120:	34 5f 	xorb	$95, %al
     122:	45 53 	pushq	%r11
     124:	74 31 	je	49 <.shstrtab+0x157>
     126:	38 69 73 	cmpb	%ch, 115(%rcx)
     129:	5f 	popq	%rdi
     12a:	6d 	insl	%dx, %es:(%rdi)
     12b:	6f 	outsl	(%rsi), %dx
     12c:	76 65 	jbe	101 <.shstrtab+0x193>
     12e:	5f 	popq	%rdi
     12f:	61  <unknown>
     130:	73 73 	jae	115 <.shstrtab+0x1a5>
     132:	69 67 6e 61 62 6c 65 	imull	$1701601889, 110(%rdi), %esp
     139:	49 53 	pushq	%r11
     13b:	34 5f 	xorb	$95, %al
     13d:	45 45  <unknown>
     13f:	45 35 76 61 6c 75 	xorl	$1970037110, %eax
     145:	65 45 76 45 	jbe	69 <.shstrtab+0x18e>
     149:	34 74 	xorb	$116, %al
     14b:	79 70 	jns	112 <.shstrtab+0x1bd>
     14d:	65 45 52 	pushq	%r10
     150:	53 	pushq	%rbx
     151:	34 5f 	xorb	$95, %al
     153:	53 	pushq	%rbx
     154:	45 5f 	popq	%r15
     156:	00 2e 	addb	%ch, (%rsi)
     158:	72 65 	jb	101 <.shstrtab+0x1bf>
     15a:	6c 	insb	%dx, %es:(%rdi)
     15b:	61  <unknown>
     15c:	2e 69 6e 69 74 5f 61 72 	imull	$1918984052, %cs:105(%rsi), %ebp
     164:	72 61 	jb	97 <.shstrtab+0x1c7>
     166:	79 00 	jns	0 <.shstrtab+0x168>
     168:	2e 63  <unknown>
     16a:	6f 	outsl	(%rsi), %dx
     16b:	6d 	insl	%dx, %es:(%rdi)
     16c:	6d 	insl	%dx, %es:(%rdi)
     16d:	65 6e 	outsb	%gs:(%rsi), %dx
     16f:	74 00 	je	0 <.shstrtab+0x171>
     171:	2e 6e 	outsb	%cs:(%rsi), %dx
     173:	6f 	outsl	(%rsi), %dx
     174:	74 65 	je	101 <.shstrtab+0x1db>
     176:	2e 47 4e  <unknown>
     179:	55 	pushq	%rbp
     17a:	2d 73 74 61 63 	subl	$1667331187, %eax
     17f:	6b 00 2e 	imull	$46, (%rax), %eax
     182:	72 65 	jb	101 <.shstrtab+0x1e9>
     184:	6c 	insb	%dx, %es:(%rdi)
     185:	61  <unknown>
     186:	2e 65 68 5f 66 72 61 	pushq	$1634887263
     18d:	6d 	insl	%dx, %es:(%rdi)
     18e:	65 00 2e 	addb	%ch, %gs:(%rsi)
     191:	67 72 6f 	jb	111 <.shstrtab+0x203>
     194:	75 70 	jne	112 <.shstrtab+0x206>
     196:	00  <unknown>
